
f103c8t6_MotorDriver.elf:     file format elf32-littlearm

Sections:
Idx Name          Size      VMA       LMA       File off  Algn
  0 .isr_vector   00000130  08000000  08000000  00010000  2**0
                  CONTENTS, ALLOC, LOAD, READONLY, DATA
  1 .text         00001d9c  08000130  08000130  00010130  2**2
                  CONTENTS, ALLOC, LOAD, READONLY, CODE
  2 .rodata       000003d0  08001ecc  08001ecc  00011ecc  2**2
                  CONTENTS, ALLOC, LOAD, READONLY, DATA
  3 .ARM.extab    00000000  0800229c  0800229c  0002000c  2**0
                  CONTENTS
  4 .ARM          00000000  0800229c  0800229c  0002000c  2**0
                  CONTENTS
  5 .preinit_array 00000000  0800229c  0800229c  0002000c  2**0
                  CONTENTS, ALLOC, LOAD, DATA
  6 .init_array   00000004  0800229c  0800229c  0001229c  2**2
                  CONTENTS, ALLOC, LOAD, DATA
  7 .fini_array   00000004  080022a0  080022a0  000122a0  2**2
                  CONTENTS, ALLOC, LOAD, DATA
  8 .data         0000000c  20000000  080022a4  00020000  2**2
                  CONTENTS, ALLOC, LOAD, DATA
  9 .bss          00000bf4  2000000c  080022b0  0002000c  2**2
                  ALLOC
 10 ._user_heap_stack 00000200  20000c00  080022b0  00020c00  2**0
                  ALLOC
 11 .ARM.attributes 00000029  00000000  00000000  0002000c  2**0
                  CONTENTS, READONLY
 12 .debug_info   000084a0  00000000  00000000  00020035  2**0
                  CONTENTS, READONLY, DEBUGGING
 13 .debug_abbrev 0000174c  00000000  00000000  000284d5  2**0
                  CONTENTS, READONLY, DEBUGGING
 14 .debug_aranges 00000330  00000000  00000000  00029c28  2**3
                  CONTENTS, READONLY, DEBUGGING
 15 .debug_ranges 00000278  00000000  00000000  00029f58  2**3
                  CONTENTS, READONLY, DEBUGGING
 16 .debug_macro  00001e10  00000000  00000000  0002a1d0  2**0
                  CONTENTS, READONLY, DEBUGGING
 17 .debug_line   000064d2  00000000  00000000  0002bfe0  2**0
                  CONTENTS, READONLY, DEBUGGING
 18 .debug_str    00059ef5  00000000  00000000  000324b2  2**0
                  CONTENTS, READONLY, DEBUGGING
 19 .comment      0000007b  00000000  00000000  0008c3a7  2**0
                  CONTENTS, READONLY
 20 .debug_frame  00000cec  00000000  00000000  0008c424  2**2
                  CONTENTS, READONLY, DEBUGGING

Disassembly of section .text:

08000130 <__do_global_dtors_aux>:
 8000130:	b510      	push	{r4, lr}
 8000132:	4c05      	ldr	r4, [pc, #20]	; (8000148 <__do_global_dtors_aux+0x18>)
 8000134:	7823      	ldrb	r3, [r4, #0]
 8000136:	b933      	cbnz	r3, 8000146 <__do_global_dtors_aux+0x16>
 8000138:	4b04      	ldr	r3, [pc, #16]	; (800014c <__do_global_dtors_aux+0x1c>)
 800013a:	b113      	cbz	r3, 8000142 <__do_global_dtors_aux+0x12>
 800013c:	4804      	ldr	r0, [pc, #16]	; (8000150 <__do_global_dtors_aux+0x20>)
 800013e:	f3af 8000 	nop.w
 8000142:	2301      	movs	r3, #1
 8000144:	7023      	strb	r3, [r4, #0]
 8000146:	bd10      	pop	{r4, pc}
 8000148:	2000000c 	.word	0x2000000c
 800014c:	00000000 	.word	0x00000000
 8000150:	08001eb4 	.word	0x08001eb4

08000154 <frame_dummy>:
 8000154:	b508      	push	{r3, lr}
 8000156:	4b03      	ldr	r3, [pc, #12]	; (8000164 <frame_dummy+0x10>)
 8000158:	b11b      	cbz	r3, 8000162 <frame_dummy+0xe>
 800015a:	4903      	ldr	r1, [pc, #12]	; (8000168 <frame_dummy+0x14>)
 800015c:	4803      	ldr	r0, [pc, #12]	; (800016c <frame_dummy+0x18>)
 800015e:	f3af 8000 	nop.w
 8000162:	bd08      	pop	{r3, pc}
 8000164:	00000000 	.word	0x00000000
 8000168:	20000010 	.word	0x20000010
 800016c:	08001eb4 	.word	0x08001eb4

08000170 <__aeabi_frsub>:
 8000170:	f080 4000 	eor.w	r0, r0, #2147483648	; 0x80000000
 8000174:	e002      	b.n	800017c <__addsf3>
 8000176:	bf00      	nop

08000178 <__aeabi_fsub>:
 8000178:	f081 4100 	eor.w	r1, r1, #2147483648	; 0x80000000

0800017c <__addsf3>:
 800017c:	0042      	lsls	r2, r0, #1
 800017e:	bf1f      	itttt	ne
 8000180:	ea5f 0341 	movsne.w	r3, r1, lsl #1
 8000184:	ea92 0f03 	teqne	r2, r3
 8000188:	ea7f 6c22 	mvnsne.w	ip, r2, asr #24
 800018c:	ea7f 6c23 	mvnsne.w	ip, r3, asr #24
 8000190:	d06a      	beq.n	8000268 <__addsf3+0xec>
 8000192:	ea4f 6212 	mov.w	r2, r2, lsr #24
 8000196:	ebd2 6313 	rsbs	r3, r2, r3, lsr #24
 800019a:	bfc1      	itttt	gt
 800019c:	18d2      	addgt	r2, r2, r3
 800019e:	4041      	eorgt	r1, r0
 80001a0:	4048      	eorgt	r0, r1
 80001a2:	4041      	eorgt	r1, r0
 80001a4:	bfb8      	it	lt
 80001a6:	425b      	neglt	r3, r3
 80001a8:	2b19      	cmp	r3, #25
 80001aa:	bf88      	it	hi
 80001ac:	4770      	bxhi	lr
 80001ae:	f010 4f00 	tst.w	r0, #2147483648	; 0x80000000
 80001b2:	f440 0000 	orr.w	r0, r0, #8388608	; 0x800000
 80001b6:	f020 407f 	bic.w	r0, r0, #4278190080	; 0xff000000
 80001ba:	bf18      	it	ne
 80001bc:	4240      	negne	r0, r0
 80001be:	f011 4f00 	tst.w	r1, #2147483648	; 0x80000000
 80001c2:	f441 0100 	orr.w	r1, r1, #8388608	; 0x800000
 80001c6:	f021 417f 	bic.w	r1, r1, #4278190080	; 0xff000000
 80001ca:	bf18      	it	ne
 80001cc:	4249      	negne	r1, r1
 80001ce:	ea92 0f03 	teq	r2, r3
 80001d2:	d03f      	beq.n	8000254 <__addsf3+0xd8>
 80001d4:	f1a2 0201 	sub.w	r2, r2, #1
 80001d8:	fa41 fc03 	asr.w	ip, r1, r3
 80001dc:	eb10 000c 	adds.w	r0, r0, ip
 80001e0:	f1c3 0320 	rsb	r3, r3, #32
 80001e4:	fa01 f103 	lsl.w	r1, r1, r3
 80001e8:	f000 4300 	and.w	r3, r0, #2147483648	; 0x80000000
 80001ec:	d502      	bpl.n	80001f4 <__addsf3+0x78>
 80001ee:	4249      	negs	r1, r1
 80001f0:	eb60 0040 	sbc.w	r0, r0, r0, lsl #1
 80001f4:	f5b0 0f00 	cmp.w	r0, #8388608	; 0x800000
 80001f8:	d313      	bcc.n	8000222 <__addsf3+0xa6>
 80001fa:	f1b0 7f80 	cmp.w	r0, #16777216	; 0x1000000
 80001fe:	d306      	bcc.n	800020e <__addsf3+0x92>
 8000200:	0840      	lsrs	r0, r0, #1
 8000202:	ea4f 0131 	mov.w	r1, r1, rrx
 8000206:	f102 0201 	add.w	r2, r2, #1
 800020a:	2afe      	cmp	r2, #254	; 0xfe
 800020c:	d251      	bcs.n	80002b2 <__addsf3+0x136>
 800020e:	f1b1 4f00 	cmp.w	r1, #2147483648	; 0x80000000
 8000212:	eb40 50c2 	adc.w	r0, r0, r2, lsl #23
 8000216:	bf08      	it	eq
 8000218:	f020 0001 	biceq.w	r0, r0, #1
 800021c:	ea40 0003 	orr.w	r0, r0, r3
 8000220:	4770      	bx	lr
 8000222:	0049      	lsls	r1, r1, #1
 8000224:	eb40 0000 	adc.w	r0, r0, r0
 8000228:	f410 0f00 	tst.w	r0, #8388608	; 0x800000
 800022c:	f1a2 0201 	sub.w	r2, r2, #1
 8000230:	d1ed      	bne.n	800020e <__addsf3+0x92>
 8000232:	fab0 fc80 	clz	ip, r0
 8000236:	f1ac 0c08 	sub.w	ip, ip, #8
 800023a:	ebb2 020c 	subs.w	r2, r2, ip
 800023e:	fa00 f00c 	lsl.w	r0, r0, ip
 8000242:	bfaa      	itet	ge
 8000244:	eb00 50c2 	addge.w	r0, r0, r2, lsl #23
 8000248:	4252      	neglt	r2, r2
 800024a:	4318      	orrge	r0, r3
 800024c:	bfbc      	itt	lt
 800024e:	40d0      	lsrlt	r0, r2
 8000250:	4318      	orrlt	r0, r3
 8000252:	4770      	bx	lr
 8000254:	f092 0f00 	teq	r2, #0
 8000258:	f481 0100 	eor.w	r1, r1, #8388608	; 0x800000
 800025c:	bf06      	itte	eq
 800025e:	f480 0000 	eoreq.w	r0, r0, #8388608	; 0x800000
 8000262:	3201      	addeq	r2, #1
 8000264:	3b01      	subne	r3, #1
 8000266:	e7b5      	b.n	80001d4 <__addsf3+0x58>
 8000268:	ea4f 0341 	mov.w	r3, r1, lsl #1
 800026c:	ea7f 6c22 	mvns.w	ip, r2, asr #24
 8000270:	bf18      	it	ne
 8000272:	ea7f 6c23 	mvnsne.w	ip, r3, asr #24
 8000276:	d021      	beq.n	80002bc <__addsf3+0x140>
 8000278:	ea92 0f03 	teq	r2, r3
 800027c:	d004      	beq.n	8000288 <__addsf3+0x10c>
 800027e:	f092 0f00 	teq	r2, #0
 8000282:	bf08      	it	eq
 8000284:	4608      	moveq	r0, r1
 8000286:	4770      	bx	lr
 8000288:	ea90 0f01 	teq	r0, r1
 800028c:	bf1c      	itt	ne
 800028e:	2000      	movne	r0, #0
 8000290:	4770      	bxne	lr
 8000292:	f012 4f7f 	tst.w	r2, #4278190080	; 0xff000000
 8000296:	d104      	bne.n	80002a2 <__addsf3+0x126>
 8000298:	0040      	lsls	r0, r0, #1
 800029a:	bf28      	it	cs
 800029c:	f040 4000 	orrcs.w	r0, r0, #2147483648	; 0x80000000
 80002a0:	4770      	bx	lr
 80002a2:	f112 7200 	adds.w	r2, r2, #33554432	; 0x2000000
 80002a6:	bf3c      	itt	cc
 80002a8:	f500 0000 	addcc.w	r0, r0, #8388608	; 0x800000
 80002ac:	4770      	bxcc	lr
 80002ae:	f000 4300 	and.w	r3, r0, #2147483648	; 0x80000000
 80002b2:	f043 40fe 	orr.w	r0, r3, #2130706432	; 0x7f000000
 80002b6:	f440 0000 	orr.w	r0, r0, #8388608	; 0x800000
 80002ba:	4770      	bx	lr
 80002bc:	ea7f 6222 	mvns.w	r2, r2, asr #24
 80002c0:	bf16      	itet	ne
 80002c2:	4608      	movne	r0, r1
 80002c4:	ea7f 6323 	mvnseq.w	r3, r3, asr #24
 80002c8:	4601      	movne	r1, r0
 80002ca:	0242      	lsls	r2, r0, #9
 80002cc:	bf06      	itte	eq
 80002ce:	ea5f 2341 	movseq.w	r3, r1, lsl #9
 80002d2:	ea90 0f01 	teqeq	r0, r1
 80002d6:	f440 0080 	orrne.w	r0, r0, #4194304	; 0x400000
 80002da:	4770      	bx	lr

080002dc <__aeabi_ui2f>:
 80002dc:	f04f 0300 	mov.w	r3, #0
 80002e0:	e004      	b.n	80002ec <__aeabi_i2f+0x8>
 80002e2:	bf00      	nop

080002e4 <__aeabi_i2f>:
 80002e4:	f010 4300 	ands.w	r3, r0, #2147483648	; 0x80000000
 80002e8:	bf48      	it	mi
 80002ea:	4240      	negmi	r0, r0
 80002ec:	ea5f 0c00 	movs.w	ip, r0
 80002f0:	bf08      	it	eq
 80002f2:	4770      	bxeq	lr
 80002f4:	f043 4396 	orr.w	r3, r3, #1258291200	; 0x4b000000
 80002f8:	4601      	mov	r1, r0
 80002fa:	f04f 0000 	mov.w	r0, #0
 80002fe:	e01c      	b.n	800033a <__aeabi_l2f+0x2a>

08000300 <__aeabi_ul2f>:
 8000300:	ea50 0201 	orrs.w	r2, r0, r1
 8000304:	bf08      	it	eq
 8000306:	4770      	bxeq	lr
 8000308:	f04f 0300 	mov.w	r3, #0
 800030c:	e00a      	b.n	8000324 <__aeabi_l2f+0x14>
 800030e:	bf00      	nop

08000310 <__aeabi_l2f>:
 8000310:	ea50 0201 	orrs.w	r2, r0, r1
 8000314:	bf08      	it	eq
 8000316:	4770      	bxeq	lr
 8000318:	f011 4300 	ands.w	r3, r1, #2147483648	; 0x80000000
 800031c:	d502      	bpl.n	8000324 <__aeabi_l2f+0x14>
 800031e:	4240      	negs	r0, r0
 8000320:	eb61 0141 	sbc.w	r1, r1, r1, lsl #1
 8000324:	ea5f 0c01 	movs.w	ip, r1
 8000328:	bf02      	ittt	eq
 800032a:	4684      	moveq	ip, r0
 800032c:	4601      	moveq	r1, r0
 800032e:	2000      	moveq	r0, #0
 8000330:	f043 43b6 	orr.w	r3, r3, #1526726656	; 0x5b000000
 8000334:	bf08      	it	eq
 8000336:	f1a3 5380 	subeq.w	r3, r3, #268435456	; 0x10000000
 800033a:	f5a3 0300 	sub.w	r3, r3, #8388608	; 0x800000
 800033e:	fabc f28c 	clz	r2, ip
 8000342:	3a08      	subs	r2, #8
 8000344:	eba3 53c2 	sub.w	r3, r3, r2, lsl #23
 8000348:	db10      	blt.n	800036c <__aeabi_l2f+0x5c>
 800034a:	fa01 fc02 	lsl.w	ip, r1, r2
 800034e:	4463      	add	r3, ip
 8000350:	fa00 fc02 	lsl.w	ip, r0, r2
 8000354:	f1c2 0220 	rsb	r2, r2, #32
 8000358:	f1bc 4f00 	cmp.w	ip, #2147483648	; 0x80000000
 800035c:	fa20 f202 	lsr.w	r2, r0, r2
 8000360:	eb43 0002 	adc.w	r0, r3, r2
 8000364:	bf08      	it	eq
 8000366:	f020 0001 	biceq.w	r0, r0, #1
 800036a:	4770      	bx	lr
 800036c:	f102 0220 	add.w	r2, r2, #32
 8000370:	fa01 fc02 	lsl.w	ip, r1, r2
 8000374:	f1c2 0220 	rsb	r2, r2, #32
 8000378:	ea50 004c 	orrs.w	r0, r0, ip, lsl #1
 800037c:	fa21 f202 	lsr.w	r2, r1, r2
 8000380:	eb43 0002 	adc.w	r0, r3, r2
 8000384:	bf08      	it	eq
 8000386:	ea20 70dc 	biceq.w	r0, r0, ip, lsr #31
 800038a:	4770      	bx	lr

0800038c <__aeabi_fmul>:
 800038c:	f04f 0cff 	mov.w	ip, #255	; 0xff
 8000390:	ea1c 52d0 	ands.w	r2, ip, r0, lsr #23
 8000394:	bf1e      	ittt	ne
 8000396:	ea1c 53d1 	andsne.w	r3, ip, r1, lsr #23
 800039a:	ea92 0f0c 	teqne	r2, ip
 800039e:	ea93 0f0c 	teqne	r3, ip
 80003a2:	d06f      	beq.n	8000484 <__aeabi_fmul+0xf8>
 80003a4:	441a      	add	r2, r3
 80003a6:	ea80 0c01 	eor.w	ip, r0, r1
 80003aa:	0240      	lsls	r0, r0, #9
 80003ac:	bf18      	it	ne
 80003ae:	ea5f 2141 	movsne.w	r1, r1, lsl #9
 80003b2:	d01e      	beq.n	80003f2 <__aeabi_fmul+0x66>
 80003b4:	f04f 6300 	mov.w	r3, #134217728	; 0x8000000
 80003b8:	ea43 1050 	orr.w	r0, r3, r0, lsr #5
 80003bc:	ea43 1151 	orr.w	r1, r3, r1, lsr #5
 80003c0:	fba0 3101 	umull	r3, r1, r0, r1
 80003c4:	f00c 4000 	and.w	r0, ip, #2147483648	; 0x80000000
 80003c8:	f5b1 0f00 	cmp.w	r1, #8388608	; 0x800000
 80003cc:	bf3e      	ittt	cc
 80003ce:	0049      	lslcc	r1, r1, #1
 80003d0:	ea41 71d3 	orrcc.w	r1, r1, r3, lsr #31
 80003d4:	005b      	lslcc	r3, r3, #1
 80003d6:	ea40 0001 	orr.w	r0, r0, r1
 80003da:	f162 027f 	sbc.w	r2, r2, #127	; 0x7f
 80003de:	2afd      	cmp	r2, #253	; 0xfd
 80003e0:	d81d      	bhi.n	800041e <__aeabi_fmul+0x92>
 80003e2:	f1b3 4f00 	cmp.w	r3, #2147483648	; 0x80000000
 80003e6:	eb40 50c2 	adc.w	r0, r0, r2, lsl #23
 80003ea:	bf08      	it	eq
 80003ec:	f020 0001 	biceq.w	r0, r0, #1
 80003f0:	4770      	bx	lr
 80003f2:	f090 0f00 	teq	r0, #0
 80003f6:	f00c 4c00 	and.w	ip, ip, #2147483648	; 0x80000000
 80003fa:	bf08      	it	eq
 80003fc:	0249      	lsleq	r1, r1, #9
 80003fe:	ea4c 2050 	orr.w	r0, ip, r0, lsr #9
 8000402:	ea40 2051 	orr.w	r0, r0, r1, lsr #9
 8000406:	3a7f      	subs	r2, #127	; 0x7f
 8000408:	bfc2      	ittt	gt
 800040a:	f1d2 03ff 	rsbsgt	r3, r2, #255	; 0xff
 800040e:	ea40 50c2 	orrgt.w	r0, r0, r2, lsl #23
 8000412:	4770      	bxgt	lr
 8000414:	f440 0000 	orr.w	r0, r0, #8388608	; 0x800000
 8000418:	f04f 0300 	mov.w	r3, #0
 800041c:	3a01      	subs	r2, #1
 800041e:	dc5d      	bgt.n	80004dc <__aeabi_fmul+0x150>
 8000420:	f112 0f19 	cmn.w	r2, #25
 8000424:	bfdc      	itt	le
 8000426:	f000 4000 	andle.w	r0, r0, #2147483648	; 0x80000000
 800042a:	4770      	bxle	lr
 800042c:	f1c2 0200 	rsb	r2, r2, #0
 8000430:	0041      	lsls	r1, r0, #1
 8000432:	fa21 f102 	lsr.w	r1, r1, r2
 8000436:	f1c2 0220 	rsb	r2, r2, #32
 800043a:	fa00 fc02 	lsl.w	ip, r0, r2
 800043e:	ea5f 0031 	movs.w	r0, r1, rrx
 8000442:	f140 0000 	adc.w	r0, r0, #0
 8000446:	ea53 034c 	orrs.w	r3, r3, ip, lsl #1
 800044a:	bf08      	it	eq
 800044c:	ea20 70dc 	biceq.w	r0, r0, ip, lsr #31
 8000450:	4770      	bx	lr
 8000452:	f092 0f00 	teq	r2, #0
 8000456:	f000 4c00 	and.w	ip, r0, #2147483648	; 0x80000000
 800045a:	bf02      	ittt	eq
 800045c:	0040      	lsleq	r0, r0, #1
 800045e:	f410 0f00 	tsteq.w	r0, #8388608	; 0x800000
 8000462:	3a01      	subeq	r2, #1
 8000464:	d0f9      	beq.n	800045a <__aeabi_fmul+0xce>
 8000466:	ea40 000c 	orr.w	r0, r0, ip
 800046a:	f093 0f00 	teq	r3, #0
 800046e:	f001 4c00 	and.w	ip, r1, #2147483648	; 0x80000000
 8000472:	bf02      	ittt	eq
 8000474:	0049      	lsleq	r1, r1, #1
 8000476:	f411 0f00 	tsteq.w	r1, #8388608	; 0x800000
 800047a:	3b01      	subeq	r3, #1
 800047c:	d0f9      	beq.n	8000472 <__aeabi_fmul+0xe6>
 800047e:	ea41 010c 	orr.w	r1, r1, ip
 8000482:	e78f      	b.n	80003a4 <__aeabi_fmul+0x18>
 8000484:	ea0c 53d1 	and.w	r3, ip, r1, lsr #23
 8000488:	ea92 0f0c 	teq	r2, ip
 800048c:	bf18      	it	ne
 800048e:	ea93 0f0c 	teqne	r3, ip
 8000492:	d00a      	beq.n	80004aa <__aeabi_fmul+0x11e>
 8000494:	f030 4c00 	bics.w	ip, r0, #2147483648	; 0x80000000
 8000498:	bf18      	it	ne
 800049a:	f031 4c00 	bicsne.w	ip, r1, #2147483648	; 0x80000000
 800049e:	d1d8      	bne.n	8000452 <__aeabi_fmul+0xc6>
 80004a0:	ea80 0001 	eor.w	r0, r0, r1
 80004a4:	f000 4000 	and.w	r0, r0, #2147483648	; 0x80000000
 80004a8:	4770      	bx	lr
 80004aa:	f090 0f00 	teq	r0, #0
 80004ae:	bf17      	itett	ne
 80004b0:	f090 4f00 	teqne	r0, #2147483648	; 0x80000000
 80004b4:	4608      	moveq	r0, r1
 80004b6:	f091 0f00 	teqne	r1, #0
 80004ba:	f091 4f00 	teqne	r1, #2147483648	; 0x80000000
 80004be:	d014      	beq.n	80004ea <__aeabi_fmul+0x15e>
 80004c0:	ea92 0f0c 	teq	r2, ip
 80004c4:	d101      	bne.n	80004ca <__aeabi_fmul+0x13e>
 80004c6:	0242      	lsls	r2, r0, #9
 80004c8:	d10f      	bne.n	80004ea <__aeabi_fmul+0x15e>
 80004ca:	ea93 0f0c 	teq	r3, ip
 80004ce:	d103      	bne.n	80004d8 <__aeabi_fmul+0x14c>
 80004d0:	024b      	lsls	r3, r1, #9
 80004d2:	bf18      	it	ne
 80004d4:	4608      	movne	r0, r1
 80004d6:	d108      	bne.n	80004ea <__aeabi_fmul+0x15e>
 80004d8:	ea80 0001 	eor.w	r0, r0, r1
 80004dc:	f000 4000 	and.w	r0, r0, #2147483648	; 0x80000000
 80004e0:	f040 40fe 	orr.w	r0, r0, #2130706432	; 0x7f000000
 80004e4:	f440 0000 	orr.w	r0, r0, #8388608	; 0x800000
 80004e8:	4770      	bx	lr
 80004ea:	f040 40fe 	orr.w	r0, r0, #2130706432	; 0x7f000000
 80004ee:	f440 0040 	orr.w	r0, r0, #12582912	; 0xc00000
 80004f2:	4770      	bx	lr

080004f4 <__aeabi_fdiv>:
 80004f4:	f04f 0cff 	mov.w	ip, #255	; 0xff
 80004f8:	ea1c 52d0 	ands.w	r2, ip, r0, lsr #23
 80004fc:	bf1e      	ittt	ne
 80004fe:	ea1c 53d1 	andsne.w	r3, ip, r1, lsr #23
 8000502:	ea92 0f0c 	teqne	r2, ip
 8000506:	ea93 0f0c 	teqne	r3, ip
 800050a:	d069      	beq.n	80005e0 <__aeabi_fdiv+0xec>
 800050c:	eba2 0203 	sub.w	r2, r2, r3
 8000510:	ea80 0c01 	eor.w	ip, r0, r1
 8000514:	0249      	lsls	r1, r1, #9
 8000516:	ea4f 2040 	mov.w	r0, r0, lsl #9
 800051a:	d037      	beq.n	800058c <__aeabi_fdiv+0x98>
 800051c:	f04f 5380 	mov.w	r3, #268435456	; 0x10000000
 8000520:	ea43 1111 	orr.w	r1, r3, r1, lsr #4
 8000524:	ea43 1310 	orr.w	r3, r3, r0, lsr #4
 8000528:	f00c 4000 	and.w	r0, ip, #2147483648	; 0x80000000
 800052c:	428b      	cmp	r3, r1
 800052e:	bf38      	it	cc
 8000530:	005b      	lslcc	r3, r3, #1
 8000532:	f142 027d 	adc.w	r2, r2, #125	; 0x7d
 8000536:	f44f 0c00 	mov.w	ip, #8388608	; 0x800000
 800053a:	428b      	cmp	r3, r1
 800053c:	bf24      	itt	cs
 800053e:	1a5b      	subcs	r3, r3, r1
 8000540:	ea40 000c 	orrcs.w	r0, r0, ip
 8000544:	ebb3 0f51 	cmp.w	r3, r1, lsr #1
 8000548:	bf24      	itt	cs
 800054a:	eba3 0351 	subcs.w	r3, r3, r1, lsr #1
 800054e:	ea40 005c 	orrcs.w	r0, r0, ip, lsr #1
 8000552:	ebb3 0f91 	cmp.w	r3, r1, lsr #2
 8000556:	bf24      	itt	cs
 8000558:	eba3 0391 	subcs.w	r3, r3, r1, lsr #2
 800055c:	ea40 009c 	orrcs.w	r0, r0, ip, lsr #2
 8000560:	ebb3 0fd1 	cmp.w	r3, r1, lsr #3
 8000564:	bf24      	itt	cs
 8000566:	eba3 03d1 	subcs.w	r3, r3, r1, lsr #3
 800056a:	ea40 00dc 	orrcs.w	r0, r0, ip, lsr #3
 800056e:	011b      	lsls	r3, r3, #4
 8000570:	bf18      	it	ne
 8000572:	ea5f 1c1c 	movsne.w	ip, ip, lsr #4
 8000576:	d1e0      	bne.n	800053a <__aeabi_fdiv+0x46>
 8000578:	2afd      	cmp	r2, #253	; 0xfd
 800057a:	f63f af50 	bhi.w	800041e <__aeabi_fmul+0x92>
 800057e:	428b      	cmp	r3, r1
 8000580:	eb40 50c2 	adc.w	r0, r0, r2, lsl #23
 8000584:	bf08      	it	eq
 8000586:	f020 0001 	biceq.w	r0, r0, #1
 800058a:	4770      	bx	lr
 800058c:	f00c 4c00 	and.w	ip, ip, #2147483648	; 0x80000000
 8000590:	ea4c 2050 	orr.w	r0, ip, r0, lsr #9
 8000594:	327f      	adds	r2, #127	; 0x7f
 8000596:	bfc2      	ittt	gt
 8000598:	f1d2 03ff 	rsbsgt	r3, r2, #255	; 0xff
 800059c:	ea40 50c2 	orrgt.w	r0, r0, r2, lsl #23
 80005a0:	4770      	bxgt	lr
 80005a2:	f440 0000 	orr.w	r0, r0, #8388608	; 0x800000
 80005a6:	f04f 0300 	mov.w	r3, #0
 80005aa:	3a01      	subs	r2, #1
 80005ac:	e737      	b.n	800041e <__aeabi_fmul+0x92>
 80005ae:	f092 0f00 	teq	r2, #0
 80005b2:	f000 4c00 	and.w	ip, r0, #2147483648	; 0x80000000
 80005b6:	bf02      	ittt	eq
 80005b8:	0040      	lsleq	r0, r0, #1
 80005ba:	f410 0f00 	tsteq.w	r0, #8388608	; 0x800000
 80005be:	3a01      	subeq	r2, #1
 80005c0:	d0f9      	beq.n	80005b6 <__aeabi_fdiv+0xc2>
 80005c2:	ea40 000c 	orr.w	r0, r0, ip
 80005c6:	f093 0f00 	teq	r3, #0
 80005ca:	f001 4c00 	and.w	ip, r1, #2147483648	; 0x80000000
 80005ce:	bf02      	ittt	eq
 80005d0:	0049      	lsleq	r1, r1, #1
 80005d2:	f411 0f00 	tsteq.w	r1, #8388608	; 0x800000
 80005d6:	3b01      	subeq	r3, #1
 80005d8:	d0f9      	beq.n	80005ce <__aeabi_fdiv+0xda>
 80005da:	ea41 010c 	orr.w	r1, r1, ip
 80005de:	e795      	b.n	800050c <__aeabi_fdiv+0x18>
 80005e0:	ea0c 53d1 	and.w	r3, ip, r1, lsr #23
 80005e4:	ea92 0f0c 	teq	r2, ip
 80005e8:	d108      	bne.n	80005fc <__aeabi_fdiv+0x108>
 80005ea:	0242      	lsls	r2, r0, #9
 80005ec:	f47f af7d 	bne.w	80004ea <__aeabi_fmul+0x15e>
 80005f0:	ea93 0f0c 	teq	r3, ip
 80005f4:	f47f af70 	bne.w	80004d8 <__aeabi_fmul+0x14c>
 80005f8:	4608      	mov	r0, r1
 80005fa:	e776      	b.n	80004ea <__aeabi_fmul+0x15e>
 80005fc:	ea93 0f0c 	teq	r3, ip
 8000600:	d104      	bne.n	800060c <__aeabi_fdiv+0x118>
 8000602:	024b      	lsls	r3, r1, #9
 8000604:	f43f af4c 	beq.w	80004a0 <__aeabi_fmul+0x114>
 8000608:	4608      	mov	r0, r1
 800060a:	e76e      	b.n	80004ea <__aeabi_fmul+0x15e>
 800060c:	f030 4c00 	bics.w	ip, r0, #2147483648	; 0x80000000
 8000610:	bf18      	it	ne
 8000612:	f031 4c00 	bicsne.w	ip, r1, #2147483648	; 0x80000000
 8000616:	d1ca      	bne.n	80005ae <__aeabi_fdiv+0xba>
 8000618:	f030 4200 	bics.w	r2, r0, #2147483648	; 0x80000000
 800061c:	f47f af5c 	bne.w	80004d8 <__aeabi_fmul+0x14c>
 8000620:	f031 4300 	bics.w	r3, r1, #2147483648	; 0x80000000
 8000624:	f47f af3c 	bne.w	80004a0 <__aeabi_fmul+0x114>
 8000628:	e75f      	b.n	80004ea <__aeabi_fmul+0x15e>
 800062a:	bf00      	nop

0800062c <__gesf2>:
 800062c:	f04f 3cff 	mov.w	ip, #4294967295
 8000630:	e006      	b.n	8000640 <__cmpsf2+0x4>
 8000632:	bf00      	nop

08000634 <__lesf2>:
 8000634:	f04f 0c01 	mov.w	ip, #1
 8000638:	e002      	b.n	8000640 <__cmpsf2+0x4>
 800063a:	bf00      	nop

0800063c <__cmpsf2>:
 800063c:	f04f 0c01 	mov.w	ip, #1
 8000640:	f84d cd04 	str.w	ip, [sp, #-4]!
 8000644:	ea4f 0240 	mov.w	r2, r0, lsl #1
 8000648:	ea4f 0341 	mov.w	r3, r1, lsl #1
 800064c:	ea7f 6c22 	mvns.w	ip, r2, asr #24
 8000650:	bf18      	it	ne
 8000652:	ea7f 6c23 	mvnsne.w	ip, r3, asr #24
 8000656:	d011      	beq.n	800067c <__cmpsf2+0x40>
 8000658:	b001      	add	sp, #4
 800065a:	ea52 0c53 	orrs.w	ip, r2, r3, lsr #1
 800065e:	bf18      	it	ne
 8000660:	ea90 0f01 	teqne	r0, r1
 8000664:	bf58      	it	pl
 8000666:	ebb2 0003 	subspl.w	r0, r2, r3
 800066a:	bf88      	it	hi
 800066c:	17c8      	asrhi	r0, r1, #31
 800066e:	bf38      	it	cc
 8000670:	ea6f 70e1 	mvncc.w	r0, r1, asr #31
 8000674:	bf18      	it	ne
 8000676:	f040 0001 	orrne.w	r0, r0, #1
 800067a:	4770      	bx	lr
 800067c:	ea7f 6c22 	mvns.w	ip, r2, asr #24
 8000680:	d102      	bne.n	8000688 <__cmpsf2+0x4c>
 8000682:	ea5f 2c40 	movs.w	ip, r0, lsl #9
 8000686:	d105      	bne.n	8000694 <__cmpsf2+0x58>
 8000688:	ea7f 6c23 	mvns.w	ip, r3, asr #24
 800068c:	d1e4      	bne.n	8000658 <__cmpsf2+0x1c>
 800068e:	ea5f 2c41 	movs.w	ip, r1, lsl #9
 8000692:	d0e1      	beq.n	8000658 <__cmpsf2+0x1c>
 8000694:	f85d 0b04 	ldr.w	r0, [sp], #4
 8000698:	4770      	bx	lr
 800069a:	bf00      	nop

0800069c <__aeabi_cfrcmple>:
 800069c:	4684      	mov	ip, r0
 800069e:	4608      	mov	r0, r1
 80006a0:	4661      	mov	r1, ip
 80006a2:	e7ff      	b.n	80006a4 <__aeabi_cfcmpeq>

080006a4 <__aeabi_cfcmpeq>:
 80006a4:	b50f      	push	{r0, r1, r2, r3, lr}
 80006a6:	f7ff ffc9 	bl	800063c <__cmpsf2>
 80006aa:	2800      	cmp	r0, #0
 80006ac:	bf48      	it	mi
 80006ae:	f110 0f00 	cmnmi.w	r0, #0
 80006b2:	bd0f      	pop	{r0, r1, r2, r3, pc}

080006b4 <__aeabi_fcmpeq>:
 80006b4:	f84d ed08 	str.w	lr, [sp, #-8]!
 80006b8:	f7ff fff4 	bl	80006a4 <__aeabi_cfcmpeq>
 80006bc:	bf0c      	ite	eq
 80006be:	2001      	moveq	r0, #1
 80006c0:	2000      	movne	r0, #0
 80006c2:	f85d fb08 	ldr.w	pc, [sp], #8
 80006c6:	bf00      	nop

080006c8 <__aeabi_fcmplt>:
 80006c8:	f84d ed08 	str.w	lr, [sp, #-8]!
 80006cc:	f7ff ffea 	bl	80006a4 <__aeabi_cfcmpeq>
 80006d0:	bf34      	ite	cc
 80006d2:	2001      	movcc	r0, #1
 80006d4:	2000      	movcs	r0, #0
 80006d6:	f85d fb08 	ldr.w	pc, [sp], #8
 80006da:	bf00      	nop

080006dc <__aeabi_fcmple>:
 80006dc:	f84d ed08 	str.w	lr, [sp, #-8]!
 80006e0:	f7ff ffe0 	bl	80006a4 <__aeabi_cfcmpeq>
 80006e4:	bf94      	ite	ls
 80006e6:	2001      	movls	r0, #1
 80006e8:	2000      	movhi	r0, #0
 80006ea:	f85d fb08 	ldr.w	pc, [sp], #8
 80006ee:	bf00      	nop

080006f0 <__aeabi_fcmpge>:
 80006f0:	f84d ed08 	str.w	lr, [sp, #-8]!
 80006f4:	f7ff ffd2 	bl	800069c <__aeabi_cfrcmple>
 80006f8:	bf94      	ite	ls
 80006fa:	2001      	movls	r0, #1
 80006fc:	2000      	movhi	r0, #0
 80006fe:	f85d fb08 	ldr.w	pc, [sp], #8
 8000702:	bf00      	nop

08000704 <__aeabi_fcmpgt>:
 8000704:	f84d ed08 	str.w	lr, [sp, #-8]!
 8000708:	f7ff ffc8 	bl	800069c <__aeabi_cfrcmple>
 800070c:	bf34      	ite	cc
 800070e:	2001      	movcc	r0, #1
 8000710:	2000      	movcs	r0, #0
 8000712:	f85d fb08 	ldr.w	pc, [sp], #8
 8000716:	bf00      	nop

08000718 <__aeabi_f2iz>:
 8000718:	ea4f 0240 	mov.w	r2, r0, lsl #1
 800071c:	f1b2 4ffe 	cmp.w	r2, #2130706432	; 0x7f000000
 8000720:	d30f      	bcc.n	8000742 <__aeabi_f2iz+0x2a>
 8000722:	f04f 039e 	mov.w	r3, #158	; 0x9e
 8000726:	ebb3 6212 	subs.w	r2, r3, r2, lsr #24
 800072a:	d90d      	bls.n	8000748 <__aeabi_f2iz+0x30>
 800072c:	ea4f 2300 	mov.w	r3, r0, lsl #8
 8000730:	f043 4300 	orr.w	r3, r3, #2147483648	; 0x80000000
 8000734:	f010 4f00 	tst.w	r0, #2147483648	; 0x80000000
 8000738:	fa23 f002 	lsr.w	r0, r3, r2
 800073c:	bf18      	it	ne
 800073e:	4240      	negne	r0, r0
 8000740:	4770      	bx	lr
 8000742:	f04f 0000 	mov.w	r0, #0
 8000746:	4770      	bx	lr
 8000748:	f112 0f61 	cmn.w	r2, #97	; 0x61
 800074c:	d101      	bne.n	8000752 <__aeabi_f2iz+0x3a>
 800074e:	0242      	lsls	r2, r0, #9
 8000750:	d105      	bne.n	800075e <__aeabi_f2iz+0x46>
 8000752:	f010 4000 	ands.w	r0, r0, #2147483648	; 0x80000000
 8000756:	bf08      	it	eq
 8000758:	f06f 4000 	mvneq.w	r0, #2147483648	; 0x80000000
 800075c:	4770      	bx	lr
 800075e:	f04f 0000 	mov.w	r0, #0
 8000762:	4770      	bx	lr

08000764 <__aeabi_f2uiz>:
 8000764:	0042      	lsls	r2, r0, #1
 8000766:	d20e      	bcs.n	8000786 <__aeabi_f2uiz+0x22>
 8000768:	f1b2 4ffe 	cmp.w	r2, #2130706432	; 0x7f000000
 800076c:	d30b      	bcc.n	8000786 <__aeabi_f2uiz+0x22>
 800076e:	f04f 039e 	mov.w	r3, #158	; 0x9e
 8000772:	ebb3 6212 	subs.w	r2, r3, r2, lsr #24
 8000776:	d409      	bmi.n	800078c <__aeabi_f2uiz+0x28>
 8000778:	ea4f 2300 	mov.w	r3, r0, lsl #8
 800077c:	f043 4300 	orr.w	r3, r3, #2147483648	; 0x80000000
 8000780:	fa23 f002 	lsr.w	r0, r3, r2
 8000784:	4770      	bx	lr
 8000786:	f04f 0000 	mov.w	r0, #0
 800078a:	4770      	bx	lr
 800078c:	f112 0f61 	cmn.w	r2, #97	; 0x61
 8000790:	d101      	bne.n	8000796 <__aeabi_f2uiz+0x32>
 8000792:	0242      	lsls	r2, r0, #9
 8000794:	d102      	bne.n	800079c <__aeabi_f2uiz+0x38>
 8000796:	f04f 30ff 	mov.w	r0, #4294967295
 800079a:	4770      	bx	lr
 800079c:	f04f 0000 	mov.w	r0, #0
 80007a0:	4770      	bx	lr
 80007a2:	bf00      	nop

080007a4 <Blink_Loop>:
 80007a4:	b480      	push	{r7}
 80007a6:	af00      	add	r7, sp, #0
 80007a8:	4b5c      	ldr	r3, [pc, #368]	; (800091c <Blink_Loop+0x178>)
 80007aa:	881b      	ldrh	r3, [r3, #0]
 80007ac:	3301      	adds	r3, #1
 80007ae:	b29a      	uxth	r2, r3
 80007b0:	4b5a      	ldr	r3, [pc, #360]	; (800091c <Blink_Loop+0x178>)
 80007b2:	801a      	strh	r2, [r3, #0]
 80007b4:	4b5a      	ldr	r3, [pc, #360]	; (8000920 <Blink_Loop+0x17c>)
 80007b6:	881b      	ldrh	r3, [r3, #0]
 80007b8:	b29b      	uxth	r3, r3
 80007ba:	f083 0301 	eor.w	r3, r3, #1
 80007be:	b29a      	uxth	r2, r3
 80007c0:	4b57      	ldr	r3, [pc, #348]	; (8000920 <Blink_Loop+0x17c>)
 80007c2:	801a      	strh	r2, [r3, #0]
 80007c4:	4b55      	ldr	r3, [pc, #340]	; (800091c <Blink_Loop+0x178>)
 80007c6:	881b      	ldrh	r3, [r3, #0]
 80007c8:	f003 0301 	and.w	r3, r3, #1
 80007cc:	b29b      	uxth	r3, r3
 80007ce:	2b00      	cmp	r3, #0
 80007d0:	d107      	bne.n	80007e2 <Blink_Loop+0x3e>
 80007d2:	4b53      	ldr	r3, [pc, #332]	; (8000920 <Blink_Loop+0x17c>)
 80007d4:	881b      	ldrh	r3, [r3, #0]
 80007d6:	b29b      	uxth	r3, r3
 80007d8:	f083 0302 	eor.w	r3, r3, #2
 80007dc:	b29a      	uxth	r2, r3
 80007de:	4b50      	ldr	r3, [pc, #320]	; (8000920 <Blink_Loop+0x17c>)
 80007e0:	801a      	strh	r2, [r3, #0]
 80007e2:	4b4e      	ldr	r3, [pc, #312]	; (800091c <Blink_Loop+0x178>)
 80007e4:	881a      	ldrh	r2, [r3, #0]
 80007e6:	4b4f      	ldr	r3, [pc, #316]	; (8000924 <Blink_Loop+0x180>)
 80007e8:	fba3 1302 	umull	r1, r3, r3, r2
 80007ec:	0899      	lsrs	r1, r3, #2
 80007ee:	460b      	mov	r3, r1
 80007f0:	009b      	lsls	r3, r3, #2
 80007f2:	440b      	add	r3, r1
 80007f4:	1ad3      	subs	r3, r2, r3
 80007f6:	b29b      	uxth	r3, r3
 80007f8:	2b00      	cmp	r3, #0
 80007fa:	d107      	bne.n	800080c <Blink_Loop+0x68>
 80007fc:	4b48      	ldr	r3, [pc, #288]	; (8000920 <Blink_Loop+0x17c>)
 80007fe:	881b      	ldrh	r3, [r3, #0]
 8000800:	b29b      	uxth	r3, r3
 8000802:	f083 0304 	eor.w	r3, r3, #4
 8000806:	b29a      	uxth	r2, r3
 8000808:	4b45      	ldr	r3, [pc, #276]	; (8000920 <Blink_Loop+0x17c>)
 800080a:	801a      	strh	r2, [r3, #0]
 800080c:	4b43      	ldr	r3, [pc, #268]	; (800091c <Blink_Loop+0x178>)
 800080e:	881a      	ldrh	r2, [r3, #0]
 8000810:	4b44      	ldr	r3, [pc, #272]	; (8000924 <Blink_Loop+0x180>)
 8000812:	fba3 1302 	umull	r1, r3, r3, r2
 8000816:	08d9      	lsrs	r1, r3, #3
 8000818:	460b      	mov	r3, r1
 800081a:	009b      	lsls	r3, r3, #2
 800081c:	440b      	add	r3, r1
 800081e:	005b      	lsls	r3, r3, #1
 8000820:	1ad3      	subs	r3, r2, r3
 8000822:	b29b      	uxth	r3, r3
 8000824:	2b00      	cmp	r3, #0
 8000826:	d107      	bne.n	8000838 <Blink_Loop+0x94>
 8000828:	4b3d      	ldr	r3, [pc, #244]	; (8000920 <Blink_Loop+0x17c>)
 800082a:	881b      	ldrh	r3, [r3, #0]
 800082c:	b29b      	uxth	r3, r3
 800082e:	f083 0308 	eor.w	r3, r3, #8
 8000832:	b29a      	uxth	r2, r3
 8000834:	4b3a      	ldr	r3, [pc, #232]	; (8000920 <Blink_Loop+0x17c>)
 8000836:	801a      	strh	r2, [r3, #0]
 8000838:	4b38      	ldr	r3, [pc, #224]	; (800091c <Blink_Loop+0x178>)
 800083a:	881b      	ldrh	r3, [r3, #0]
 800083c:	4a3a      	ldr	r2, [pc, #232]	; (8000928 <Blink_Loop+0x184>)
 800083e:	fba2 1203 	umull	r1, r2, r2, r3
 8000842:	0912      	lsrs	r2, r2, #4
 8000844:	2132      	movs	r1, #50	; 0x32
 8000846:	fb01 f202 	mul.w	r2, r1, r2
 800084a:	1a9b      	subs	r3, r3, r2
 800084c:	b29b      	uxth	r3, r3
 800084e:	2b00      	cmp	r3, #0
 8000850:	d107      	bne.n	8000862 <Blink_Loop+0xbe>
 8000852:	4b33      	ldr	r3, [pc, #204]	; (8000920 <Blink_Loop+0x17c>)
 8000854:	881b      	ldrh	r3, [r3, #0]
 8000856:	b29b      	uxth	r3, r3
 8000858:	f083 0310 	eor.w	r3, r3, #16
 800085c:	b29a      	uxth	r2, r3
 800085e:	4b30      	ldr	r3, [pc, #192]	; (8000920 <Blink_Loop+0x17c>)
 8000860:	801a      	strh	r2, [r3, #0]
 8000862:	4b2e      	ldr	r3, [pc, #184]	; (800091c <Blink_Loop+0x178>)
 8000864:	881b      	ldrh	r3, [r3, #0]
 8000866:	4a30      	ldr	r2, [pc, #192]	; (8000928 <Blink_Loop+0x184>)
 8000868:	fba2 1203 	umull	r1, r2, r2, r3
 800086c:	0952      	lsrs	r2, r2, #5
 800086e:	2164      	movs	r1, #100	; 0x64
 8000870:	fb01 f202 	mul.w	r2, r1, r2
 8000874:	1a9b      	subs	r3, r3, r2
 8000876:	b29b      	uxth	r3, r3
 8000878:	2b00      	cmp	r3, #0
 800087a:	d107      	bne.n	800088c <Blink_Loop+0xe8>
 800087c:	4b28      	ldr	r3, [pc, #160]	; (8000920 <Blink_Loop+0x17c>)
 800087e:	881b      	ldrh	r3, [r3, #0]
 8000880:	b29b      	uxth	r3, r3
 8000882:	f083 0320 	eor.w	r3, r3, #32
 8000886:	b29a      	uxth	r2, r3
 8000888:	4b25      	ldr	r3, [pc, #148]	; (8000920 <Blink_Loop+0x17c>)
 800088a:	801a      	strh	r2, [r3, #0]
 800088c:	4b23      	ldr	r3, [pc, #140]	; (800091c <Blink_Loop+0x178>)
 800088e:	881b      	ldrh	r3, [r3, #0]
 8000890:	4a26      	ldr	r2, [pc, #152]	; (800092c <Blink_Loop+0x188>)
 8000892:	fba2 1203 	umull	r1, r2, r2, r3
 8000896:	0912      	lsrs	r2, r2, #4
 8000898:	21fa      	movs	r1, #250	; 0xfa
 800089a:	fb01 f202 	mul.w	r2, r1, r2
 800089e:	1a9b      	subs	r3, r3, r2
 80008a0:	b29b      	uxth	r3, r3
 80008a2:	2b00      	cmp	r3, #0
 80008a4:	d107      	bne.n	80008b6 <Blink_Loop+0x112>
 80008a6:	4b1e      	ldr	r3, [pc, #120]	; (8000920 <Blink_Loop+0x17c>)
 80008a8:	881b      	ldrh	r3, [r3, #0]
 80008aa:	b29b      	uxth	r3, r3
 80008ac:	f083 0340 	eor.w	r3, r3, #64	; 0x40
 80008b0:	b29a      	uxth	r2, r3
 80008b2:	4b1b      	ldr	r3, [pc, #108]	; (8000920 <Blink_Loop+0x17c>)
 80008b4:	801a      	strh	r2, [r3, #0]
 80008b6:	4b19      	ldr	r3, [pc, #100]	; (800091c <Blink_Loop+0x178>)
 80008b8:	881b      	ldrh	r3, [r3, #0]
 80008ba:	4a1c      	ldr	r2, [pc, #112]	; (800092c <Blink_Loop+0x188>)
 80008bc:	fba2 1203 	umull	r1, r2, r2, r3
 80008c0:	0952      	lsrs	r2, r2, #5
 80008c2:	f44f 71fa 	mov.w	r1, #500	; 0x1f4
 80008c6:	fb01 f202 	mul.w	r2, r1, r2
 80008ca:	1a9b      	subs	r3, r3, r2
 80008cc:	b29b      	uxth	r3, r3
 80008ce:	2b00      	cmp	r3, #0
 80008d0:	d107      	bne.n	80008e2 <Blink_Loop+0x13e>
 80008d2:	4b13      	ldr	r3, [pc, #76]	; (8000920 <Blink_Loop+0x17c>)
 80008d4:	881b      	ldrh	r3, [r3, #0]
 80008d6:	b29b      	uxth	r3, r3
 80008d8:	f083 0380 	eor.w	r3, r3, #128	; 0x80
 80008dc:	b29a      	uxth	r2, r3
 80008de:	4b10      	ldr	r3, [pc, #64]	; (8000920 <Blink_Loop+0x17c>)
 80008e0:	801a      	strh	r2, [r3, #0]
 80008e2:	4b0e      	ldr	r3, [pc, #56]	; (800091c <Blink_Loop+0x178>)
 80008e4:	881b      	ldrh	r3, [r3, #0]
 80008e6:	4a11      	ldr	r2, [pc, #68]	; (800092c <Blink_Loop+0x188>)
 80008e8:	fba2 1203 	umull	r1, r2, r2, r3
 80008ec:	0992      	lsrs	r2, r2, #6
 80008ee:	f44f 717a 	mov.w	r1, #1000	; 0x3e8
 80008f2:	fb01 f202 	mul.w	r2, r1, r2
 80008f6:	1a9b      	subs	r3, r3, r2
 80008f8:	b29b      	uxth	r3, r3
 80008fa:	2b00      	cmp	r3, #0
 80008fc:	d10a      	bne.n	8000914 <Blink_Loop+0x170>
 80008fe:	4b08      	ldr	r3, [pc, #32]	; (8000920 <Blink_Loop+0x17c>)
 8000900:	881b      	ldrh	r3, [r3, #0]
 8000902:	b29b      	uxth	r3, r3
 8000904:	f483 7380 	eor.w	r3, r3, #256	; 0x100
 8000908:	b29a      	uxth	r2, r3
 800090a:	4b05      	ldr	r3, [pc, #20]	; (8000920 <Blink_Loop+0x17c>)
 800090c:	801a      	strh	r2, [r3, #0]
 800090e:	4b03      	ldr	r3, [pc, #12]	; (800091c <Blink_Loop+0x178>)
 8000910:	2200      	movs	r2, #0
 8000912:	801a      	strh	r2, [r3, #0]
 8000914:	bf00      	nop
 8000916:	46bd      	mov	sp, r7
 8000918:	bc80      	pop	{r7}
 800091a:	4770      	bx	lr
 800091c:	2000002a 	.word	0x2000002a
 8000920:	20000028 	.word	0x20000028
 8000924:	cccccccd 	.word	0xcccccccd
 8000928:	51eb851f 	.word	0x51eb851f
 800092c:	10624dd3 	.word	0x10624dd3

08000930 <Blink>:
 8000930:	b480      	push	{r7}
 8000932:	b083      	sub	sp, #12
 8000934:	af00      	add	r7, sp, #0
 8000936:	4603      	mov	r3, r0
 8000938:	71fb      	strb	r3, [r7, #7]
 800093a:	4b0a      	ldr	r3, [pc, #40]	; (8000964 <Blink+0x34>)
 800093c:	881b      	ldrh	r3, [r3, #0]
 800093e:	b29b      	uxth	r3, r3
 8000940:	461a      	mov	r2, r3
 8000942:	79fb      	ldrb	r3, [r7, #7]
 8000944:	fa42 f303 	asr.w	r3, r2, r3
 8000948:	f003 0301 	and.w	r3, r3, #1
 800094c:	2b00      	cmp	r3, #0
 800094e:	d002      	beq.n	8000956 <Blink+0x26>
 8000950:	f64f 73ff 	movw	r3, #65535	; 0xffff
 8000954:	e000      	b.n	8000958 <Blink+0x28>
 8000956:	2300      	movs	r3, #0
 8000958:	4618      	mov	r0, r3
 800095a:	370c      	adds	r7, #12
 800095c:	46bd      	mov	sp, r7
 800095e:	bc80      	pop	{r7}
 8000960:	4770      	bx	lr
 8000962:	bf00      	nop
 8000964:	20000028 	.word	0x20000028

08000968 <msDelay_Loop>:
 8000968:	b480      	push	{r7}
 800096a:	af00      	add	r7, sp, #0
 800096c:	4b04      	ldr	r3, [pc, #16]	; (8000980 <msDelay_Loop+0x18>)
 800096e:	681b      	ldr	r3, [r3, #0]
 8000970:	3301      	adds	r3, #1
 8000972:	4a03      	ldr	r2, [pc, #12]	; (8000980 <msDelay_Loop+0x18>)
 8000974:	6013      	str	r3, [r2, #0]
 8000976:	bf00      	nop
 8000978:	46bd      	mov	sp, r7
 800097a:	bc80      	pop	{r7}
 800097c:	4770      	bx	lr
 800097e:	bf00      	nop
 8000980:	2000002c 	.word	0x2000002c

08000984 <msDelay>:
 8000984:	b480      	push	{r7}
 8000986:	b083      	sub	sp, #12
 8000988:	af00      	add	r7, sp, #0
 800098a:	6078      	str	r0, [r7, #4]
 800098c:	687b      	ldr	r3, [r7, #4]
 800098e:	2b00      	cmp	r3, #0
 8000990:	d00a      	beq.n	80009a8 <msDelay+0x24>
 8000992:	4b08      	ldr	r3, [pc, #32]	; (80009b4 <msDelay+0x30>)
 8000994:	2200      	movs	r2, #0
 8000996:	601a      	str	r2, [r3, #0]
 8000998:	e000      	b.n	800099c <msDelay+0x18>
 800099a:	bf00      	nop
 800099c:	4b05      	ldr	r3, [pc, #20]	; (80009b4 <msDelay+0x30>)
 800099e:	681a      	ldr	r2, [r3, #0]
 80009a0:	687b      	ldr	r3, [r7, #4]
 80009a2:	429a      	cmp	r2, r3
 80009a4:	d3f9      	bcc.n	800099a <msDelay+0x16>
 80009a6:	e000      	b.n	80009aa <msDelay+0x26>
 80009a8:	bf00      	nop
 80009aa:	370c      	adds	r7, #12
 80009ac:	46bd      	mov	sp, r7
 80009ae:	bc80      	pop	{r7}
 80009b0:	4770      	bx	lr
 80009b2:	bf00      	nop
 80009b4:	2000002c 	.word	0x2000002c

080009b8 <SystemInit>:
 80009b8:	b480      	push	{r7}
 80009ba:	af00      	add	r7, sp, #0
 80009bc:	4b15      	ldr	r3, [pc, #84]	; (8000a14 <SystemInit+0x5c>)
 80009be:	681b      	ldr	r3, [r3, #0]
 80009c0:	4a14      	ldr	r2, [pc, #80]	; (8000a14 <SystemInit+0x5c>)
 80009c2:	f043 0301 	orr.w	r3, r3, #1
 80009c6:	6013      	str	r3, [r2, #0]
 80009c8:	4b12      	ldr	r3, [pc, #72]	; (8000a14 <SystemInit+0x5c>)
 80009ca:	685a      	ldr	r2, [r3, #4]
 80009cc:	4911      	ldr	r1, [pc, #68]	; (8000a14 <SystemInit+0x5c>)
 80009ce:	4b12      	ldr	r3, [pc, #72]	; (8000a18 <SystemInit+0x60>)
 80009d0:	4013      	ands	r3, r2
 80009d2:	604b      	str	r3, [r1, #4]
 80009d4:	4b0f      	ldr	r3, [pc, #60]	; (8000a14 <SystemInit+0x5c>)
 80009d6:	681b      	ldr	r3, [r3, #0]
 80009d8:	4a0e      	ldr	r2, [pc, #56]	; (8000a14 <SystemInit+0x5c>)
 80009da:	f023 7384 	bic.w	r3, r3, #17301504	; 0x1080000
 80009de:	f423 3380 	bic.w	r3, r3, #65536	; 0x10000
 80009e2:	6013      	str	r3, [r2, #0]
 80009e4:	4b0b      	ldr	r3, [pc, #44]	; (8000a14 <SystemInit+0x5c>)
 80009e6:	681b      	ldr	r3, [r3, #0]
 80009e8:	4a0a      	ldr	r2, [pc, #40]	; (8000a14 <SystemInit+0x5c>)
 80009ea:	f423 2380 	bic.w	r3, r3, #262144	; 0x40000
 80009ee:	6013      	str	r3, [r2, #0]
 80009f0:	4b08      	ldr	r3, [pc, #32]	; (8000a14 <SystemInit+0x5c>)
 80009f2:	685b      	ldr	r3, [r3, #4]
 80009f4:	4a07      	ldr	r2, [pc, #28]	; (8000a14 <SystemInit+0x5c>)
 80009f6:	f423 03fe 	bic.w	r3, r3, #8323072	; 0x7f0000
 80009fa:	6053      	str	r3, [r2, #4]
 80009fc:	4b05      	ldr	r3, [pc, #20]	; (8000a14 <SystemInit+0x5c>)
 80009fe:	f44f 021f 	mov.w	r2, #10420224	; 0x9f0000
 8000a02:	609a      	str	r2, [r3, #8]
 8000a04:	4b05      	ldr	r3, [pc, #20]	; (8000a1c <SystemInit+0x64>)
 8000a06:	f04f 6200 	mov.w	r2, #134217728	; 0x8000000
 8000a0a:	609a      	str	r2, [r3, #8]
 8000a0c:	bf00      	nop
 8000a0e:	46bd      	mov	sp, r7
 8000a10:	bc80      	pop	{r7}
 8000a12:	4770      	bx	lr
 8000a14:	40021000 	.word	0x40021000
 8000a18:	f8ff0000 	.word	0xf8ff0000
 8000a1c:	e000ed00 	.word	0xe000ed00

08000a20 <Gpio_Init>:
 8000a20:	b480      	push	{r7}
 8000a22:	af00      	add	r7, sp, #0
 8000a24:	4b15      	ldr	r3, [pc, #84]	; (8000a7c <Gpio_Init+0x5c>)
 8000a26:	699b      	ldr	r3, [r3, #24]
 8000a28:	4a14      	ldr	r2, [pc, #80]	; (8000a7c <Gpio_Init+0x5c>)
 8000a2a:	f043 033d 	orr.w	r3, r3, #61	; 0x3d
 8000a2e:	6193      	str	r3, [r2, #24]
 8000a30:	4b13      	ldr	r3, [pc, #76]	; (8000a80 <Gpio_Init+0x60>)
 8000a32:	685b      	ldr	r3, [r3, #4]
 8000a34:	4a12      	ldr	r2, [pc, #72]	; (8000a80 <Gpio_Init+0x60>)
 8000a36:	f043 7300 	orr.w	r3, r3, #33554432	; 0x2000000
 8000a3a:	6053      	str	r3, [r2, #4]
 8000a3c:	4b11      	ldr	r3, [pc, #68]	; (8000a84 <Gpio_Init+0x64>)
 8000a3e:	685b      	ldr	r3, [r3, #4]
 8000a40:	4a10      	ldr	r2, [pc, #64]	; (8000a84 <Gpio_Init+0x64>)
 8000a42:	f423 0340 	bic.w	r3, r3, #12582912	; 0xc00000
 8000a46:	6053      	str	r3, [r2, #4]
 8000a48:	4b0e      	ldr	r3, [pc, #56]	; (8000a84 <Gpio_Init+0x64>)
 8000a4a:	685b      	ldr	r3, [r3, #4]
 8000a4c:	4a0d      	ldr	r2, [pc, #52]	; (8000a84 <Gpio_Init+0x64>)
 8000a4e:	f443 1340 	orr.w	r3, r3, #3145728	; 0x300000
 8000a52:	6053      	str	r3, [r2, #4]
 8000a54:	4b0c      	ldr	r3, [pc, #48]	; (8000a88 <Gpio_Init+0x68>)
 8000a56:	681b      	ldr	r3, [r3, #0]
 8000a58:	4a0b      	ldr	r2, [pc, #44]	; (8000a88 <Gpio_Init+0x68>)
 8000a5a:	f023 13cc 	bic.w	r3, r3, #13369548	; 0xcc00cc
 8000a5e:	f423 434c 	bic.w	r3, r3, #52224	; 0xcc00
 8000a62:	6013      	str	r3, [r2, #0]
 8000a64:	4b08      	ldr	r3, [pc, #32]	; (8000a88 <Gpio_Init+0x68>)
 8000a66:	681b      	ldr	r3, [r3, #0]
 8000a68:	4a07      	ldr	r2, [pc, #28]	; (8000a88 <Gpio_Init+0x68>)
 8000a6a:	f043 1333 	orr.w	r3, r3, #3342387	; 0x330033
 8000a6e:	f443 534c 	orr.w	r3, r3, #13056	; 0x3300
 8000a72:	6013      	str	r3, [r2, #0]
 8000a74:	bf00      	nop
 8000a76:	46bd      	mov	sp, r7
 8000a78:	bc80      	pop	{r7}
 8000a7a:	4770      	bx	lr
 8000a7c:	40021000 	.word	0x40021000
 8000a80:	40010000 	.word	0x40010000
 8000a84:	40011000 	.word	0x40011000
 8000a88:	40010800 	.word	0x40010800

08000a8c <I2C_Int_Handler>:
 8000a8c:	b480      	push	{r7}
 8000a8e:	b085      	sub	sp, #20
 8000a90:	af00      	add	r7, sp, #0
 8000a92:	6078      	str	r0, [r7, #4]
 8000a94:	460b      	mov	r3, r1
 8000a96:	70fb      	strb	r3, [r7, #3]
 8000a98:	687b      	ldr	r3, [r7, #4]
 8000a9a:	695b      	ldr	r3, [r3, #20]
 8000a9c:	60fb      	str	r3, [r7, #12]
 8000a9e:	68fb      	ldr	r3, [r7, #12]
 8000aa0:	f003 0301 	and.w	r3, r3, #1
 8000aa4:	2b00      	cmp	r3, #0
 8000aa6:	d008      	beq.n	8000aba <I2C_Int_Handler+0x2e>
 8000aa8:	78fb      	ldrb	r3, [r7, #3]
 8000aaa:	005b      	lsls	r3, r3, #1
 8000aac:	4a26      	ldr	r2, [pc, #152]	; (8000b48 <I2C_Int_Handler+0xbc>)
 8000aae:	7812      	ldrb	r2, [r2, #0]
 8000ab0:	4313      	orrs	r3, r2
 8000ab2:	461a      	mov	r2, r3
 8000ab4:	687b      	ldr	r3, [r7, #4]
 8000ab6:	611a      	str	r2, [r3, #16]
 8000ab8:	e042      	b.n	8000b40 <I2C_Int_Handler+0xb4>
 8000aba:	68fb      	ldr	r3, [r7, #12]
 8000abc:	f003 0302 	and.w	r3, r3, #2
 8000ac0:	2b00      	cmp	r3, #0
 8000ac2:	d010      	beq.n	8000ae6 <I2C_Int_Handler+0x5a>
 8000ac4:	4b20      	ldr	r3, [pc, #128]	; (8000b48 <I2C_Int_Handler+0xbc>)
 8000ac6:	781b      	ldrb	r3, [r3, #0]
 8000ac8:	2b00      	cmp	r3, #0
 8000aca:	d136      	bne.n	8000b3a <I2C_Int_Handler+0xae>
 8000acc:	4b1f      	ldr	r3, [pc, #124]	; (8000b4c <I2C_Int_Handler+0xc0>)
 8000ace:	681b      	ldr	r3, [r3, #0]
 8000ad0:	781b      	ldrb	r3, [r3, #0]
 8000ad2:	461a      	mov	r2, r3
 8000ad4:	687b      	ldr	r3, [r7, #4]
 8000ad6:	611a      	str	r2, [r3, #16]
 8000ad8:	4b1d      	ldr	r3, [pc, #116]	; (8000b50 <I2C_Int_Handler+0xc4>)
 8000ada:	881b      	ldrh	r3, [r3, #0]
 8000adc:	3301      	adds	r3, #1
 8000ade:	b29a      	uxth	r2, r3
 8000ae0:	4b1b      	ldr	r3, [pc, #108]	; (8000b50 <I2C_Int_Handler+0xc4>)
 8000ae2:	801a      	strh	r2, [r3, #0]
 8000ae4:	e029      	b.n	8000b3a <I2C_Int_Handler+0xae>
 8000ae6:	68fb      	ldr	r3, [r7, #12]
 8000ae8:	f003 0380 	and.w	r3, r3, #128	; 0x80
 8000aec:	2b00      	cmp	r3, #0
 8000aee:	d01f      	beq.n	8000b30 <I2C_Int_Handler+0xa4>
 8000af0:	4b16      	ldr	r3, [pc, #88]	; (8000b4c <I2C_Int_Handler+0xc0>)
 8000af2:	681b      	ldr	r3, [r3, #0]
 8000af4:	4a16      	ldr	r2, [pc, #88]	; (8000b50 <I2C_Int_Handler+0xc4>)
 8000af6:	8812      	ldrh	r2, [r2, #0]
 8000af8:	4413      	add	r3, r2
 8000afa:	781b      	ldrb	r3, [r3, #0]
 8000afc:	461a      	mov	r2, r3
 8000afe:	687b      	ldr	r3, [r7, #4]
 8000b00:	611a      	str	r2, [r3, #16]
 8000b02:	4b13      	ldr	r3, [pc, #76]	; (8000b50 <I2C_Int_Handler+0xc4>)
 8000b04:	881b      	ldrh	r3, [r3, #0]
 8000b06:	3301      	adds	r3, #1
 8000b08:	b29a      	uxth	r2, r3
 8000b0a:	4b11      	ldr	r3, [pc, #68]	; (8000b50 <I2C_Int_Handler+0xc4>)
 8000b0c:	801a      	strh	r2, [r3, #0]
 8000b0e:	4b11      	ldr	r3, [pc, #68]	; (8000b54 <I2C_Int_Handler+0xc8>)
 8000b10:	781b      	ldrb	r3, [r3, #0]
 8000b12:	b29a      	uxth	r2, r3
 8000b14:	4b0e      	ldr	r3, [pc, #56]	; (8000b50 <I2C_Int_Handler+0xc4>)
 8000b16:	881b      	ldrh	r3, [r3, #0]
 8000b18:	429a      	cmp	r2, r3
 8000b1a:	d810      	bhi.n	8000b3e <I2C_Int_Handler+0xb2>
 8000b1c:	4b0c      	ldr	r3, [pc, #48]	; (8000b50 <I2C_Int_Handler+0xc4>)
 8000b1e:	2200      	movs	r2, #0
 8000b20:	801a      	strh	r2, [r3, #0]
 8000b22:	687b      	ldr	r3, [r7, #4]
 8000b24:	681b      	ldr	r3, [r3, #0]
 8000b26:	f443 7200 	orr.w	r2, r3, #512	; 0x200
 8000b2a:	687b      	ldr	r3, [r7, #4]
 8000b2c:	601a      	str	r2, [r3, #0]
 8000b2e:	e006      	b.n	8000b3e <I2C_Int_Handler+0xb2>
 8000b30:	68fb      	ldr	r3, [r7, #12]
 8000b32:	f003 0304 	and.w	r3, r3, #4
 8000b36:	2b00      	cmp	r3, #0
 8000b38:	e002      	b.n	8000b40 <I2C_Int_Handler+0xb4>
 8000b3a:	bf00      	nop
 8000b3c:	e000      	b.n	8000b40 <I2C_Int_Handler+0xb4>
 8000b3e:	bf00      	nop
 8000b40:	3714      	adds	r7, #20
 8000b42:	46bd      	mov	sp, r7
 8000b44:	bc80      	pop	{r7}
 8000b46:	4770      	bx	lr
 8000b48:	20000039 	.word	0x20000039
 8000b4c:	20000034 	.word	0x20000034
 8000b50:	20000030 	.word	0x20000030
 8000b54:	20000038 	.word	0x20000038

08000b58 <I2C1_EV_IRQHandler>:
 8000b58:	b480      	push	{r7}
 8000b5a:	af00      	add	r7, sp, #0
 8000b5c:	bf00      	nop
 8000b5e:	46bd      	mov	sp, r7
 8000b60:	bc80      	pop	{r7}
 8000b62:	4770      	bx	lr

08000b64 <I2C2_EV_IRQHandler>:
 8000b64:	b580      	push	{r7, lr}
 8000b66:	af00      	add	r7, sp, #0
 8000b68:	4b03      	ldr	r3, [pc, #12]	; (8000b78 <I2C2_EV_IRQHandler+0x14>)
 8000b6a:	781b      	ldrb	r3, [r3, #0]
 8000b6c:	4619      	mov	r1, r3
 8000b6e:	4803      	ldr	r0, [pc, #12]	; (8000b7c <I2C2_EV_IRQHandler+0x18>)
 8000b70:	f7ff ff8c 	bl	8000a8c <I2C_Int_Handler>
 8000b74:	bf00      	nop
 8000b76:	bd80      	pop	{r7, pc}
 8000b78:	20000032 	.word	0x20000032
 8000b7c:	40005800 	.word	0x40005800

08000b80 <SPI2_IRQHandler>:
 8000b80:	b480      	push	{r7}
 8000b82:	af00      	add	r7, sp, #0
 8000b84:	4b0b      	ldr	r3, [pc, #44]	; (8000bb4 <SPI2_IRQHandler+0x34>)
 8000b86:	689b      	ldr	r3, [r3, #8]
 8000b88:	4b0a      	ldr	r3, [pc, #40]	; (8000bb4 <SPI2_IRQHandler+0x34>)
 8000b8a:	689b      	ldr	r3, [r3, #8]
 8000b8c:	4a09      	ldr	r2, [pc, #36]	; (8000bb4 <SPI2_IRQHandler+0x34>)
 8000b8e:	f003 0301 	and.w	r3, r3, #1
 8000b92:	6093      	str	r3, [r2, #8]
 8000b94:	4b07      	ldr	r3, [pc, #28]	; (8000bb4 <SPI2_IRQHandler+0x34>)
 8000b96:	689b      	ldr	r3, [r3, #8]
 8000b98:	4a06      	ldr	r2, [pc, #24]	; (8000bb4 <SPI2_IRQHandler+0x34>)
 8000b9a:	f003 0320 	and.w	r3, r3, #32
 8000b9e:	6093      	str	r3, [r2, #8]
 8000ba0:	4b04      	ldr	r3, [pc, #16]	; (8000bb4 <SPI2_IRQHandler+0x34>)
 8000ba2:	689b      	ldr	r3, [r3, #8]
 8000ba4:	4a03      	ldr	r2, [pc, #12]	; (8000bb4 <SPI2_IRQHandler+0x34>)
 8000ba6:	f003 0340 	and.w	r3, r3, #64	; 0x40
 8000baa:	6093      	str	r3, [r2, #8]
 8000bac:	bf00      	nop
 8000bae:	46bd      	mov	sp, r7
 8000bb0:	bc80      	pop	{r7}
 8000bb2:	4770      	bx	lr
 8000bb4:	40003800 	.word	0x40003800

08000bb8 <Init_RCC>:
 8000bb8:	b480      	push	{r7}
 8000bba:	b083      	sub	sp, #12
 8000bbc:	af00      	add	r7, sp, #0
 8000bbe:	2300      	movs	r3, #0
 8000bc0:	607b      	str	r3, [r7, #4]
 8000bc2:	2300      	movs	r3, #0
 8000bc4:	603b      	str	r3, [r7, #0]
 8000bc6:	4b3a      	ldr	r3, [pc, #232]	; (8000cb0 <Init_RCC+0xf8>)
 8000bc8:	681b      	ldr	r3, [r3, #0]
 8000bca:	4a39      	ldr	r2, [pc, #228]	; (8000cb0 <Init_RCC+0xf8>)
 8000bcc:	f443 3380 	orr.w	r3, r3, #65536	; 0x10000
 8000bd0:	6013      	str	r3, [r2, #0]
 8000bd2:	4b37      	ldr	r3, [pc, #220]	; (8000cb0 <Init_RCC+0xf8>)
 8000bd4:	681b      	ldr	r3, [r3, #0]
 8000bd6:	f403 3300 	and.w	r3, r3, #131072	; 0x20000
 8000bda:	603b      	str	r3, [r7, #0]
 8000bdc:	687b      	ldr	r3, [r7, #4]
 8000bde:	3301      	adds	r3, #1
 8000be0:	607b      	str	r3, [r7, #4]
 8000be2:	683b      	ldr	r3, [r7, #0]
 8000be4:	2b00      	cmp	r3, #0
 8000be6:	d104      	bne.n	8000bf2 <Init_RCC+0x3a>
 8000be8:	687b      	ldr	r3, [r7, #4]
 8000bea:	f64f 72ff 	movw	r2, #65535	; 0xffff
 8000bee:	4293      	cmp	r3, r2
 8000bf0:	d1ef      	bne.n	8000bd2 <Init_RCC+0x1a>
 8000bf2:	4b2f      	ldr	r3, [pc, #188]	; (8000cb0 <Init_RCC+0xf8>)
 8000bf4:	681b      	ldr	r3, [r3, #0]
 8000bf6:	f403 3300 	and.w	r3, r3, #131072	; 0x20000
 8000bfa:	2b00      	cmp	r3, #0
 8000bfc:	d002      	beq.n	8000c04 <Init_RCC+0x4c>
 8000bfe:	2301      	movs	r3, #1
 8000c00:	603b      	str	r3, [r7, #0]
 8000c02:	e001      	b.n	8000c08 <Init_RCC+0x50>
 8000c04:	2300      	movs	r3, #0
 8000c06:	603b      	str	r3, [r7, #0]
 8000c08:	683b      	ldr	r3, [r7, #0]
 8000c0a:	2b01      	cmp	r3, #1
 8000c0c:	d149      	bne.n	8000ca2 <Init_RCC+0xea>
 8000c0e:	4b29      	ldr	r3, [pc, #164]	; (8000cb4 <Init_RCC+0xfc>)
 8000c10:	681b      	ldr	r3, [r3, #0]
 8000c12:	4a28      	ldr	r2, [pc, #160]	; (8000cb4 <Init_RCC+0xfc>)
 8000c14:	f043 0310 	orr.w	r3, r3, #16
 8000c18:	6013      	str	r3, [r2, #0]
 8000c1a:	4b26      	ldr	r3, [pc, #152]	; (8000cb4 <Init_RCC+0xfc>)
 8000c1c:	681b      	ldr	r3, [r3, #0]
 8000c1e:	4a25      	ldr	r2, [pc, #148]	; (8000cb4 <Init_RCC+0xfc>)
 8000c20:	f023 0307 	bic.w	r3, r3, #7
 8000c24:	6013      	str	r3, [r2, #0]
 8000c26:	4b23      	ldr	r3, [pc, #140]	; (8000cb4 <Init_RCC+0xfc>)
 8000c28:	681b      	ldr	r3, [r3, #0]
 8000c2a:	4a22      	ldr	r2, [pc, #136]	; (8000cb4 <Init_RCC+0xfc>)
 8000c2c:	f043 0304 	orr.w	r3, r3, #4
 8000c30:	6013      	str	r3, [r2, #0]
 8000c32:	4b1f      	ldr	r3, [pc, #124]	; (8000cb0 <Init_RCC+0xf8>)
 8000c34:	685b      	ldr	r3, [r3, #4]
 8000c36:	4a1e      	ldr	r2, [pc, #120]	; (8000cb0 <Init_RCC+0xf8>)
 8000c38:	f443 6380 	orr.w	r3, r3, #1024	; 0x400
 8000c3c:	6053      	str	r3, [r2, #4]
 8000c3e:	4b1c      	ldr	r3, [pc, #112]	; (8000cb0 <Init_RCC+0xf8>)
 8000c40:	685b      	ldr	r3, [r3, #4]
 8000c42:	4a1b      	ldr	r2, [pc, #108]	; (8000cb0 <Init_RCC+0xf8>)
 8000c44:	f423 137c 	bic.w	r3, r3, #4128768	; 0x3f0000
 8000c48:	6053      	str	r3, [r2, #4]
 8000c4a:	4b19      	ldr	r3, [pc, #100]	; (8000cb0 <Init_RCC+0xf8>)
 8000c4c:	685b      	ldr	r3, [r3, #4]
 8000c4e:	4a18      	ldr	r2, [pc, #96]	; (8000cb0 <Init_RCC+0xf8>)
 8000c50:	f443 13e8 	orr.w	r3, r3, #1900544	; 0x1d0000
 8000c54:	6053      	str	r3, [r2, #4]
 8000c56:	4b16      	ldr	r3, [pc, #88]	; (8000cb0 <Init_RCC+0xf8>)
 8000c58:	681b      	ldr	r3, [r3, #0]
 8000c5a:	4a15      	ldr	r2, [pc, #84]	; (8000cb0 <Init_RCC+0xf8>)
 8000c5c:	f043 7380 	orr.w	r3, r3, #16777216	; 0x1000000
 8000c60:	6013      	str	r3, [r2, #0]
 8000c62:	bf00      	nop
 8000c64:	4b12      	ldr	r3, [pc, #72]	; (8000cb0 <Init_RCC+0xf8>)
 8000c66:	681b      	ldr	r3, [r3, #0]
 8000c68:	f003 7300 	and.w	r3, r3, #33554432	; 0x2000000
 8000c6c:	2b00      	cmp	r3, #0
 8000c6e:	d0f9      	beq.n	8000c64 <Init_RCC+0xac>
 8000c70:	4b0f      	ldr	r3, [pc, #60]	; (8000cb0 <Init_RCC+0xf8>)
 8000c72:	685b      	ldr	r3, [r3, #4]
 8000c74:	4a0e      	ldr	r2, [pc, #56]	; (8000cb0 <Init_RCC+0xf8>)
 8000c76:	f023 0303 	bic.w	r3, r3, #3
 8000c7a:	6053      	str	r3, [r2, #4]
 8000c7c:	4b0c      	ldr	r3, [pc, #48]	; (8000cb0 <Init_RCC+0xf8>)
 8000c7e:	685b      	ldr	r3, [r3, #4]
 8000c80:	4a0b      	ldr	r2, [pc, #44]	; (8000cb0 <Init_RCC+0xf8>)
 8000c82:	f043 0302 	orr.w	r3, r3, #2
 8000c86:	6053      	str	r3, [r2, #4]
 8000c88:	bf00      	nop
 8000c8a:	4b09      	ldr	r3, [pc, #36]	; (8000cb0 <Init_RCC+0xf8>)
 8000c8c:	685b      	ldr	r3, [r3, #4]
 8000c8e:	f003 030c 	and.w	r3, r3, #12
 8000c92:	2b08      	cmp	r3, #8
 8000c94:	d1f9      	bne.n	8000c8a <Init_RCC+0xd2>
 8000c96:	4b06      	ldr	r3, [pc, #24]	; (8000cb0 <Init_RCC+0xf8>)
 8000c98:	681b      	ldr	r3, [r3, #0]
 8000c9a:	4a05      	ldr	r2, [pc, #20]	; (8000cb0 <Init_RCC+0xf8>)
 8000c9c:	f443 2300 	orr.w	r3, r3, #524288	; 0x80000
 8000ca0:	6013      	str	r3, [r2, #0]
 8000ca2:	683b      	ldr	r3, [r7, #0]
 8000ca4:	4618      	mov	r0, r3
 8000ca6:	370c      	adds	r7, #12
 8000ca8:	46bd      	mov	sp, r7
 8000caa:	bc80      	pop	{r7}
 8000cac:	4770      	bx	lr
 8000cae:	bf00      	nop
 8000cb0:	40021000 	.word	0x40021000
 8000cb4:	40022000 	.word	0x40022000

08000cb8 <Sys_Init>:
 8000cb8:	b580      	push	{r7, lr}
 8000cba:	af00      	add	r7, sp, #0
 8000cbc:	4b13      	ldr	r3, [pc, #76]	; (8000d0c <Sys_Init+0x54>)
 8000cbe:	681b      	ldr	r3, [r3, #0]
 8000cc0:	4a12      	ldr	r2, [pc, #72]	; (8000d0c <Sys_Init+0x54>)
 8000cc2:	f043 0301 	orr.w	r3, r3, #1
 8000cc6:	6013      	str	r3, [r2, #0]
 8000cc8:	4b10      	ldr	r3, [pc, #64]	; (8000d0c <Sys_Init+0x54>)
 8000cca:	685a      	ldr	r2, [r3, #4]
 8000ccc:	490f      	ldr	r1, [pc, #60]	; (8000d0c <Sys_Init+0x54>)
 8000cce:	4b10      	ldr	r3, [pc, #64]	; (8000d10 <Sys_Init+0x58>)
 8000cd0:	4013      	ands	r3, r2
 8000cd2:	604b      	str	r3, [r1, #4]
 8000cd4:	4b0d      	ldr	r3, [pc, #52]	; (8000d0c <Sys_Init+0x54>)
 8000cd6:	681b      	ldr	r3, [r3, #0]
 8000cd8:	4a0c      	ldr	r2, [pc, #48]	; (8000d0c <Sys_Init+0x54>)
 8000cda:	f023 7384 	bic.w	r3, r3, #17301504	; 0x1080000
 8000cde:	f423 3380 	bic.w	r3, r3, #65536	; 0x10000
 8000ce2:	6013      	str	r3, [r2, #0]
 8000ce4:	4b09      	ldr	r3, [pc, #36]	; (8000d0c <Sys_Init+0x54>)
 8000ce6:	681b      	ldr	r3, [r3, #0]
 8000ce8:	4a08      	ldr	r2, [pc, #32]	; (8000d0c <Sys_Init+0x54>)
 8000cea:	f423 2380 	bic.w	r3, r3, #262144	; 0x40000
 8000cee:	6013      	str	r3, [r2, #0]
 8000cf0:	4b06      	ldr	r3, [pc, #24]	; (8000d0c <Sys_Init+0x54>)
 8000cf2:	685b      	ldr	r3, [r3, #4]
 8000cf4:	4a05      	ldr	r2, [pc, #20]	; (8000d0c <Sys_Init+0x54>)
 8000cf6:	f423 03fe 	bic.w	r3, r3, #8323072	; 0x7f0000
 8000cfa:	6053      	str	r3, [r2, #4]
 8000cfc:	4b03      	ldr	r3, [pc, #12]	; (8000d0c <Sys_Init+0x54>)
 8000cfe:	f44f 021f 	mov.w	r2, #10420224	; 0x9f0000
 8000d02:	609a      	str	r2, [r3, #8]
 8000d04:	f7ff ff58 	bl	8000bb8 <Init_RCC>
 8000d08:	bf00      	nop
 8000d0a:	bd80      	pop	{r7, pc}
 8000d0c:	40021000 	.word	0x40021000
 8000d10:	f0ff0000 	.word	0xf0ff0000

08000d14 <NMI_Handler>:
 8000d14:	b480      	push	{r7}
 8000d16:	af00      	add	r7, sp, #0
 8000d18:	bf00      	nop
 8000d1a:	46bd      	mov	sp, r7
 8000d1c:	bc80      	pop	{r7}
 8000d1e:	4770      	bx	lr

08000d20 <HardFault_Handler>:
 8000d20:	b480      	push	{r7}
 8000d22:	af00      	add	r7, sp, #0
 8000d24:	bf00      	nop
 8000d26:	46bd      	mov	sp, r7
 8000d28:	bc80      	pop	{r7}
 8000d2a:	4770      	bx	lr

08000d2c <MemManage_Handler>:
 8000d2c:	b480      	push	{r7}
 8000d2e:	af00      	add	r7, sp, #0
 8000d30:	bf00      	nop
 8000d32:	46bd      	mov	sp, r7
 8000d34:	bc80      	pop	{r7}
 8000d36:	4770      	bx	lr

08000d38 <BusFault_Handler>:
 8000d38:	b480      	push	{r7}
 8000d3a:	af00      	add	r7, sp, #0
 8000d3c:	bf00      	nop
 8000d3e:	46bd      	mov	sp, r7
 8000d40:	bc80      	pop	{r7}
 8000d42:	4770      	bx	lr

08000d44 <UsageFault_Handler>:
 8000d44:	b480      	push	{r7}
 8000d46:	af00      	add	r7, sp, #0
 8000d48:	bf00      	nop
 8000d4a:	46bd      	mov	sp, r7
 8000d4c:	bc80      	pop	{r7}
 8000d4e:	4770      	bx	lr

08000d50 <SVC_Handler>:
 8000d50:	b480      	push	{r7}
 8000d52:	af00      	add	r7, sp, #0
 8000d54:	bf00      	nop
 8000d56:	46bd      	mov	sp, r7
 8000d58:	bc80      	pop	{r7}
 8000d5a:	4770      	bx	lr

08000d5c <SysTick_Init>:
 8000d5c:	b480      	push	{r7}
 8000d5e:	af00      	add	r7, sp, #0
 8000d60:	4b06      	ldr	r3, [pc, #24]	; (8000d7c <SysTick_Init+0x20>)
 8000d62:	4a07      	ldr	r2, [pc, #28]	; (8000d80 <SysTick_Init+0x24>)
 8000d64:	605a      	str	r2, [r3, #4]
 8000d66:	4b05      	ldr	r3, [pc, #20]	; (8000d7c <SysTick_Init+0x20>)
 8000d68:	4a05      	ldr	r2, [pc, #20]	; (8000d80 <SysTick_Init+0x24>)
 8000d6a:	609a      	str	r2, [r3, #8]
 8000d6c:	4b03      	ldr	r3, [pc, #12]	; (8000d7c <SysTick_Init+0x20>)
 8000d6e:	2207      	movs	r2, #7
 8000d70:	601a      	str	r2, [r3, #0]
 8000d72:	bf00      	nop
 8000d74:	46bd      	mov	sp, r7
 8000d76:	bc80      	pop	{r7}
 8000d78:	4770      	bx	lr
 8000d7a:	bf00      	nop
 8000d7c:	e000e010 	.word	0xe000e010
 8000d80:	0001193f 	.word	0x0001193f

08000d84 <__NVIC_EnableIRQ>:
 8000d84:	b480      	push	{r7}
 8000d86:	b083      	sub	sp, #12
 8000d88:	af00      	add	r7, sp, #0
 8000d8a:	4603      	mov	r3, r0
 8000d8c:	71fb      	strb	r3, [r7, #7]
 8000d8e:	f997 3007 	ldrsb.w	r3, [r7, #7]
 8000d92:	2b00      	cmp	r3, #0
 8000d94:	db0b      	blt.n	8000dae <__NVIC_EnableIRQ+0x2a>
 8000d96:	79fb      	ldrb	r3, [r7, #7]
 8000d98:	f003 021f 	and.w	r2, r3, #31
 8000d9c:	4906      	ldr	r1, [pc, #24]	; (8000db8 <__NVIC_EnableIRQ+0x34>)
 8000d9e:	f997 3007 	ldrsb.w	r3, [r7, #7]
 8000da2:	095b      	lsrs	r3, r3, #5
 8000da4:	2001      	movs	r0, #1
 8000da6:	fa00 f202 	lsl.w	r2, r0, r2
 8000daa:	f841 2023 	str.w	r2, [r1, r3, lsl #2]
 8000dae:	bf00      	nop
 8000db0:	370c      	adds	r7, #12
 8000db2:	46bd      	mov	sp, r7
 8000db4:	bc80      	pop	{r7}
 8000db6:	4770      	bx	lr
 8000db8:	e000e100 	.word	0xe000e100

08000dbc <__NVIC_SetPriority>:
 8000dbc:	b480      	push	{r7}
 8000dbe:	b083      	sub	sp, #12
 8000dc0:	af00      	add	r7, sp, #0
 8000dc2:	4603      	mov	r3, r0
 8000dc4:	6039      	str	r1, [r7, #0]
 8000dc6:	71fb      	strb	r3, [r7, #7]
 8000dc8:	f997 3007 	ldrsb.w	r3, [r7, #7]
 8000dcc:	2b00      	cmp	r3, #0
 8000dce:	db0a      	blt.n	8000de6 <__NVIC_SetPriority+0x2a>
 8000dd0:	683b      	ldr	r3, [r7, #0]
 8000dd2:	b2da      	uxtb	r2, r3
 8000dd4:	490c      	ldr	r1, [pc, #48]	; (8000e08 <__NVIC_SetPriority+0x4c>)
 8000dd6:	f997 3007 	ldrsb.w	r3, [r7, #7]
 8000dda:	0112      	lsls	r2, r2, #4
 8000ddc:	b2d2      	uxtb	r2, r2
 8000dde:	440b      	add	r3, r1
 8000de0:	f883 2300 	strb.w	r2, [r3, #768]	; 0x300
 8000de4:	e00a      	b.n	8000dfc <__NVIC_SetPriority+0x40>
 8000de6:	683b      	ldr	r3, [r7, #0]
 8000de8:	b2da      	uxtb	r2, r3
 8000dea:	4908      	ldr	r1, [pc, #32]	; (8000e0c <__NVIC_SetPriority+0x50>)
 8000dec:	79fb      	ldrb	r3, [r7, #7]
 8000dee:	f003 030f 	and.w	r3, r3, #15
 8000df2:	3b04      	subs	r3, #4
 8000df4:	0112      	lsls	r2, r2, #4
 8000df6:	b2d2      	uxtb	r2, r2
 8000df8:	440b      	add	r3, r1
 8000dfa:	761a      	strb	r2, [r3, #24]
 8000dfc:	bf00      	nop
 8000dfe:	370c      	adds	r7, #12
 8000e00:	46bd      	mov	sp, r7
 8000e02:	bc80      	pop	{r7}
 8000e04:	4770      	bx	lr
 8000e06:	bf00      	nop
 8000e08:	e000e100 	.word	0xe000e100
 8000e0c:	e000ed00 	.word	0xe000ed00

08000e10 <TIM1_InitForPWM>:
 8000e10:	b480      	push	{r7}
 8000e12:	af00      	add	r7, sp, #0
 8000e14:	4b2f      	ldr	r3, [pc, #188]	; (8000ed4 <TIM1_InitForPWM+0xc4>)
 8000e16:	699b      	ldr	r3, [r3, #24]
 8000e18:	4a2e      	ldr	r2, [pc, #184]	; (8000ed4 <TIM1_InitForPWM+0xc4>)
 8000e1a:	f443 6300 	orr.w	r3, r3, #2048	; 0x800
 8000e1e:	6193      	str	r3, [r2, #24]
 8000e20:	4b2d      	ldr	r3, [pc, #180]	; (8000ed8 <TIM1_InitForPWM+0xc8>)
 8000e22:	2200      	movs	r2, #0
 8000e24:	629a      	str	r2, [r3, #40]	; 0x28
 8000e26:	4b2c      	ldr	r3, [pc, #176]	; (8000ed8 <TIM1_InitForPWM+0xc8>)
 8000e28:	f240 7207 	movw	r2, #1799	; 0x707
 8000e2c:	62da      	str	r2, [r3, #44]	; 0x2c
 8000e2e:	4b2a      	ldr	r3, [pc, #168]	; (8000ed8 <TIM1_InitForPWM+0xc8>)
 8000e30:	681b      	ldr	r3, [r3, #0]
 8000e32:	4a29      	ldr	r2, [pc, #164]	; (8000ed8 <TIM1_InitForPWM+0xc8>)
 8000e34:	f043 0380 	orr.w	r3, r3, #128	; 0x80
 8000e38:	6013      	str	r3, [r2, #0]
 8000e3a:	4b27      	ldr	r3, [pc, #156]	; (8000ed8 <TIM1_InitForPWM+0xc8>)
 8000e3c:	6a1b      	ldr	r3, [r3, #32]
 8000e3e:	4a26      	ldr	r2, [pc, #152]	; (8000ed8 <TIM1_InitForPWM+0xc8>)
 8000e40:	f443 7388 	orr.w	r3, r3, #272	; 0x110
 8000e44:	f043 0301 	orr.w	r3, r3, #1
 8000e48:	6213      	str	r3, [r2, #32]
 8000e4a:	4b23      	ldr	r3, [pc, #140]	; (8000ed8 <TIM1_InitForPWM+0xc8>)
 8000e4c:	699b      	ldr	r3, [r3, #24]
 8000e4e:	4a22      	ldr	r2, [pc, #136]	; (8000ed8 <TIM1_InitForPWM+0xc8>)
 8000e50:	f043 036c 	orr.w	r3, r3, #108	; 0x6c
 8000e54:	6193      	str	r3, [r2, #24]
 8000e56:	4b20      	ldr	r3, [pc, #128]	; (8000ed8 <TIM1_InitForPWM+0xc8>)
 8000e58:	699b      	ldr	r3, [r3, #24]
 8000e5a:	4a1f      	ldr	r2, [pc, #124]	; (8000ed8 <TIM1_InitForPWM+0xc8>)
 8000e5c:	f443 43d8 	orr.w	r3, r3, #27648	; 0x6c00
 8000e60:	6193      	str	r3, [r2, #24]
 8000e62:	4b1d      	ldr	r3, [pc, #116]	; (8000ed8 <TIM1_InitForPWM+0xc8>)
 8000e64:	69db      	ldr	r3, [r3, #28]
 8000e66:	4a1c      	ldr	r2, [pc, #112]	; (8000ed8 <TIM1_InitForPWM+0xc8>)
 8000e68:	f043 036c 	orr.w	r3, r3, #108	; 0x6c
 8000e6c:	61d3      	str	r3, [r2, #28]
 8000e6e:	4b1a      	ldr	r3, [pc, #104]	; (8000ed8 <TIM1_InitForPWM+0xc8>)
 8000e70:	681b      	ldr	r3, [r3, #0]
 8000e72:	4a19      	ldr	r2, [pc, #100]	; (8000ed8 <TIM1_InitForPWM+0xc8>)
 8000e74:	f023 0360 	bic.w	r3, r3, #96	; 0x60
 8000e78:	6013      	str	r3, [r2, #0]
 8000e7a:	4b17      	ldr	r3, [pc, #92]	; (8000ed8 <TIM1_InitForPWM+0xc8>)
 8000e7c:	681b      	ldr	r3, [r3, #0]
 8000e7e:	4a16      	ldr	r2, [pc, #88]	; (8000ed8 <TIM1_InitForPWM+0xc8>)
 8000e80:	f043 0320 	orr.w	r3, r3, #32
 8000e84:	6013      	str	r3, [r2, #0]
 8000e86:	4b14      	ldr	r3, [pc, #80]	; (8000ed8 <TIM1_InitForPWM+0xc8>)
 8000e88:	6c5b      	ldr	r3, [r3, #68]	; 0x44
 8000e8a:	4a13      	ldr	r2, [pc, #76]	; (8000ed8 <TIM1_InitForPWM+0xc8>)
 8000e8c:	f443 4380 	orr.w	r3, r3, #16384	; 0x4000
 8000e90:	6453      	str	r3, [r2, #68]	; 0x44
 8000e92:	4b10      	ldr	r3, [pc, #64]	; (8000ed4 <TIM1_InitForPWM+0xc4>)
 8000e94:	699b      	ldr	r3, [r3, #24]
 8000e96:	4a0f      	ldr	r2, [pc, #60]	; (8000ed4 <TIM1_InitForPWM+0xc4>)
 8000e98:	f043 0304 	orr.w	r3, r3, #4
 8000e9c:	6193      	str	r3, [r2, #24]
 8000e9e:	4b0f      	ldr	r3, [pc, #60]	; (8000edc <TIM1_InitForPWM+0xcc>)
 8000ea0:	685b      	ldr	r3, [r3, #4]
 8000ea2:	4a0e      	ldr	r2, [pc, #56]	; (8000edc <TIM1_InitForPWM+0xcc>)
 8000ea4:	f443 6308 	orr.w	r3, r3, #2176	; 0x880
 8000ea8:	f043 0308 	orr.w	r3, r3, #8
 8000eac:	6053      	str	r3, [r2, #4]
 8000eae:	4b0b      	ldr	r3, [pc, #44]	; (8000edc <TIM1_InitForPWM+0xcc>)
 8000eb0:	685b      	ldr	r3, [r3, #4]
 8000eb2:	4a0a      	ldr	r2, [pc, #40]	; (8000edc <TIM1_InitForPWM+0xcc>)
 8000eb4:	f443 734c 	orr.w	r3, r3, #816	; 0x330
 8000eb8:	f043 0303 	orr.w	r3, r3, #3
 8000ebc:	6053      	str	r3, [r2, #4]
 8000ebe:	4b06      	ldr	r3, [pc, #24]	; (8000ed8 <TIM1_InitForPWM+0xc8>)
 8000ec0:	681b      	ldr	r3, [r3, #0]
 8000ec2:	4a05      	ldr	r2, [pc, #20]	; (8000ed8 <TIM1_InitForPWM+0xc8>)
 8000ec4:	f043 0301 	orr.w	r3, r3, #1
 8000ec8:	6013      	str	r3, [r2, #0]
 8000eca:	bf00      	nop
 8000ecc:	46bd      	mov	sp, r7
 8000ece:	bc80      	pop	{r7}
 8000ed0:	4770      	bx	lr
 8000ed2:	bf00      	nop
 8000ed4:	40021000 	.word	0x40021000
 8000ed8:	40012c00 	.word	0x40012c00
 8000edc:	40010800 	.word	0x40010800

08000ee0 <TIM4_Init>:
 8000ee0:	b580      	push	{r7, lr}
 8000ee2:	af00      	add	r7, sp, #0
 8000ee4:	4b0e      	ldr	r3, [pc, #56]	; (8000f20 <TIM4_Init+0x40>)
 8000ee6:	69db      	ldr	r3, [r3, #28]
 8000ee8:	4a0d      	ldr	r2, [pc, #52]	; (8000f20 <TIM4_Init+0x40>)
 8000eea:	f043 0304 	orr.w	r3, r3, #4
 8000eee:	61d3      	str	r3, [r2, #28]
 8000ef0:	4b0c      	ldr	r3, [pc, #48]	; (8000f24 <TIM4_Init+0x44>)
 8000ef2:	2247      	movs	r2, #71	; 0x47
 8000ef4:	629a      	str	r2, [r3, #40]	; 0x28
 8000ef6:	4b0b      	ldr	r3, [pc, #44]	; (8000f24 <TIM4_Init+0x44>)
 8000ef8:	4a0b      	ldr	r2, [pc, #44]	; (8000f28 <TIM4_Init+0x48>)
 8000efa:	62da      	str	r2, [r3, #44]	; 0x2c
 8000efc:	4b09      	ldr	r3, [pc, #36]	; (8000f24 <TIM4_Init+0x44>)
 8000efe:	68db      	ldr	r3, [r3, #12]
 8000f00:	4a08      	ldr	r2, [pc, #32]	; (8000f24 <TIM4_Init+0x44>)
 8000f02:	f043 0301 	orr.w	r3, r3, #1
 8000f06:	60d3      	str	r3, [r2, #12]
 8000f08:	4b06      	ldr	r3, [pc, #24]	; (8000f24 <TIM4_Init+0x44>)
 8000f0a:	2281      	movs	r2, #129	; 0x81
 8000f0c:	601a      	str	r2, [r3, #0]
 8000f0e:	210f      	movs	r1, #15
 8000f10:	201e      	movs	r0, #30
 8000f12:	f7ff ff53 	bl	8000dbc <__NVIC_SetPriority>
 8000f16:	201e      	movs	r0, #30
 8000f18:	f7ff ff34 	bl	8000d84 <__NVIC_EnableIRQ>
 8000f1c:	bf00      	nop
 8000f1e:	bd80      	pop	{r7, pc}
 8000f20:	40021000 	.word	0x40021000
 8000f24:	40000800 	.word	0x40000800
 8000f28:	0001869f 	.word	0x0001869f

08000f2c <Led_Blink>:
	riseReg  = (oldState ^ event) & event;
	oldState = event;
	if(riseReg) (*var)--;
}
//************************************************************
void Led_Blink(void){
 8000f2c:	b580      	push	{r7, lr}
 8000f2e:	af00      	add	r7, sp, #0

	if(Blink(INTERVAL_50_mS)) Led_PC13_On();
 8000f30:	2004      	movs	r0, #4
 8000f32:	f7ff fcfd 	bl	8000930 <Blink>
 8000f36:	4603      	mov	r3, r0
 8000f38:	2b00      	cmp	r3, #0
 8000f3a:	d004      	beq.n	8000f46 <Led_Blink+0x1a>
 8000f3c:	4b05      	ldr	r3, [pc, #20]	; (8000f54 <Led_Blink+0x28>)
 8000f3e:	f44f 5200 	mov.w	r2, #8192	; 0x2000
 8000f42:	611a      	str	r2, [r3, #16]
	else					  Led_PC13_Off();
}
 8000f44:	e003      	b.n	8000f4e <Led_Blink+0x22>
	else					  Led_PC13_Off();
 8000f46:	4b03      	ldr	r3, [pc, #12]	; (8000f54 <Led_Blink+0x28>)
 8000f48:	f04f 5200 	mov.w	r2, #536870912	; 0x20000000
 8000f4c:	611a      	str	r2, [r3, #16]
}
 8000f4e:	bf00      	nop
 8000f50:	bd80      	pop	{r7, pc}
 8000f52:	bf00      	nop
 8000f54:	40011000 	.word	0x40011000

08000f58 <FillSinTable>:

static uint16_t sin_arr[STEPS_NUM][3];

//************************************************************
//************************************************************
void FillSinTable(void){
 8000f58:	b580      	push	{r7, lr}
 8000f5a:	b082      	sub	sp, #8
 8000f5c:	af00      	add	r7, sp, #0

	float arg = (PI / STEPS_NUM);
 8000f5e:	4b18      	ldr	r3, [pc, #96]	; (8000fc0 <FillSinTable+0x68>)
 8000f60:	603b      	str	r3, [r7, #0]
	//--------------------------
	for(int i = 0; i < STEPS_NUM; i++)
 8000f62:	2300      	movs	r3, #0
 8000f64:	607b      	str	r3, [r7, #4]
 8000f66:	e022      	b.n	8000fae <FillSinTable+0x56>
		{
			//sin_arr[i] = (uint16_t)( fabs(PRECISION * sin(i * arg)) );
			sin_arr[i][0] = (uint16_t)(PWM_MAX_VALUE * sinf(i * arg));
 8000f68:	6878      	ldr	r0, [r7, #4]
 8000f6a:	f7ff f9bb 	bl	80002e4 <__aeabi_i2f>
 8000f6e:	4603      	mov	r3, r0
 8000f70:	6839      	ldr	r1, [r7, #0]
 8000f72:	4618      	mov	r0, r3
 8000f74:	f7ff fa0a 	bl	800038c <__aeabi_fmul>
 8000f78:	4603      	mov	r3, r0
 8000f7a:	4618      	mov	r0, r3
 8000f7c:	f000 f9e2 	bl	8001344 <sinf>
 8000f80:	4603      	mov	r3, r0
 8000f82:	4910      	ldr	r1, [pc, #64]	; (8000fc4 <FillSinTable+0x6c>)
 8000f84:	4618      	mov	r0, r3
 8000f86:	f7ff fa01 	bl	800038c <__aeabi_fmul>
 8000f8a:	4603      	mov	r3, r0
 8000f8c:	4618      	mov	r0, r3
 8000f8e:	f7ff fbe9 	bl	8000764 <__aeabi_f2uiz>
 8000f92:	4603      	mov	r3, r0
 8000f94:	b298      	uxth	r0, r3
 8000f96:	490c      	ldr	r1, [pc, #48]	; (8000fc8 <FillSinTable+0x70>)
 8000f98:	687a      	ldr	r2, [r7, #4]
 8000f9a:	4613      	mov	r3, r2
 8000f9c:	005b      	lsls	r3, r3, #1
 8000f9e:	4413      	add	r3, r2
 8000fa0:	005b      	lsls	r3, r3, #1
 8000fa2:	440b      	add	r3, r1
 8000fa4:	4602      	mov	r2, r0
 8000fa6:	801a      	strh	r2, [r3, #0]
	for(int i = 0; i < STEPS_NUM; i++)
 8000fa8:	687b      	ldr	r3, [r7, #4]
 8000faa:	3301      	adds	r3, #1
 8000fac:	607b      	str	r3, [r7, #4]
 8000fae:	687b      	ldr	r3, [r7, #4]
 8000fb0:	f5b3 7ffa 	cmp.w	r3, #500	; 0x1f4
 8000fb4:	dbd8      	blt.n	8000f68 <FillSinTable+0x10>
//			sin_arr[i][1] = (uint16_t)(PWM_MAX_VALUE * sinf((i + STEPS_NUM/3) * arg));
//			sin_arr[i][2] = (uint16_t)(PWM_MAX_VALUE * sinf((i + STEPS_NUM/6) * arg));
		}
}
 8000fb6:	bf00      	nop
 8000fb8:	3708      	adds	r7, #8
 8000fba:	46bd      	mov	sp, r7
 8000fbc:	bd80      	pop	{r7, pc}
 8000fbe:	bf00      	nop
 8000fc0:	3bcde32e 	.word	0x3bcde32e
 8000fc4:	44e10000 	.word	0x44e10000
 8000fc8:	2000003c 	.word	0x2000003c

08000fcc <main>:
//*******************************************************************************************
//*******************************************************************************************

int main(void){
 8000fcc:	b580      	push	{r7, lr}
 8000fce:	af00      	add	r7, sp, #0


	//--------------------------
	//Drivers.
	Sys_Init();
 8000fd0:	f7ff fe72 	bl	8000cb8 <Sys_Init>
	Gpio_Init();
 8000fd4:	f7ff fd24 	bl	8000a20 <Gpio_Init>
	SysTick_Init();
 8000fd8:	f7ff fec0 	bl	8000d5c <SysTick_Init>
  \details Enables IRQ interrupts by clearing the I-bit in the CPSR.
           Can only be executed in Privileged modes.
 */
__STATIC_FORCEINLINE void __enable_irq(void)
{
  __ASM volatile ("cpsie i" : : : "memory");
 8000fdc:	b662      	cpsie	i
	__enable_irq();
	//***********************************************
	TIM1_InitForPWM();
 8000fde:	f7ff ff17 	bl	8000e10 <TIM1_InitForPWM>
	//TIM3_InitForPWM();//TIM3     .
	TIM4_Init();      //TIM4     .
 8000fe2:	f7ff ff7d 	bl	8000ee0 <TIM4_Init>

	//  .
	FillSinTable();
 8000fe6:	f7ff ffb7 	bl	8000f58 <FillSinTable>

	//__disable_irq();
	msDelay(500);
 8000fea:	f44f 70fa 	mov.w	r0, #500	; 0x1f4
 8000fee:	f7ff fcc9 	bl	8000984 <msDelay>
	while(1)
		{
			//msDelay(10);
			//***********************************************
			// .
			Led_Blink();
 8000ff2:	f7ff ff9b 	bl	8000f2c <Led_Blink>
 8000ff6:	e7fc      	b.n	8000ff2 <main+0x26>

08000ff8 <SysTick_Handler>:
	//************************************************************************************
}
//*******************************************************************************************
//*******************************************************************************************
//  .
void SysTick_Handler(void){
 8000ff8:	b580      	push	{r7, lr}
 8000ffa:	af00      	add	r7, sp, #0
//		{
//			msCountForDS18B20 = 0;
//			FlagsStr.DS18B20  = 1;
//		}
	//--------------------------
	msDelay_Loop();
 8000ffc:	f7ff fcb4 	bl	8000968 <msDelay_Loop>
	Blink_Loop();
 8001000:	f7ff fbd0 	bl	80007a4 <Blink_Loop>
	Encoder()->Loop();
 8001004:	f000 f946 	bl	8001294 <Encoder>
 8001008:	4603      	mov	r3, r0
 800100a:	685b      	ldr	r3, [r3, #4]
 800100c:	4798      	blx	r3
}
 800100e:	bf00      	nop
 8001010:	bd80      	pop	{r7, pc}
	...

08001014 <TIM4_IRQHandler>:
#define PMSM_PWM 1500 //-   0  1800



// TIM4.
void TIM4_IRQHandler(void){
 8001014:	b480      	push	{r7}
 8001016:	b083      	sub	sp, #12
 8001018:	af00      	add	r7, sp, #0

	uint16_t pwm1, pwm2, pwm3;
	//--------------------------
	TIM4->SR &= ~TIM_SR_UIF;//  .
 800101a:	4b31      	ldr	r3, [pc, #196]	; (80010e0 <TIM4_IRQHandler+0xcc>)
 800101c:	691b      	ldr	r3, [r3, #16]
 800101e:	4a30      	ldr	r2, [pc, #192]	; (80010e0 <TIM4_IRQHandler+0xcc>)
 8001020:	f023 0301 	bic.w	r3, r3, #1
 8001024:	6113      	str	r3, [r2, #16]
//	sinTableIndex++;
//	if(sinTableIndex > PMSM_SINTABLESIZE-1) sinTableIndex = 0;
	//--------------------------

	//  .
	pwm1 = (uint16_t)((uint32_t)(PMSM_PWM * sin_arr[sinTableIndex][0]) / STEPS_NUM);
 8001026:	4b2f      	ldr	r3, [pc, #188]	; (80010e4 <TIM4_IRQHandler+0xd0>)
 8001028:	881b      	ldrh	r3, [r3, #0]
 800102a:	4619      	mov	r1, r3
 800102c:	4a2e      	ldr	r2, [pc, #184]	; (80010e8 <TIM4_IRQHandler+0xd4>)
 800102e:	460b      	mov	r3, r1
 8001030:	005b      	lsls	r3, r3, #1
 8001032:	440b      	add	r3, r1
 8001034:	005b      	lsls	r3, r3, #1
 8001036:	4413      	add	r3, r2
 8001038:	881b      	ldrh	r3, [r3, #0]
 800103a:	461a      	mov	r2, r3
 800103c:	f240 53dc 	movw	r3, #1500	; 0x5dc
 8001040:	fb03 f302 	mul.w	r3, r3, r2
 8001044:	461a      	mov	r2, r3
 8001046:	4b29      	ldr	r3, [pc, #164]	; (80010ec <TIM4_IRQHandler+0xd8>)
 8001048:	fba3 2302 	umull	r2, r3, r3, r2
 800104c:	095b      	lsrs	r3, r3, #5
 800104e:	80fb      	strh	r3, [r7, #6]
	pwm2 = (uint16_t)((uint32_t)(PMSM_PWM * sin_arr[sinTableIndex][1]) / STEPS_NUM);
 8001050:	4b24      	ldr	r3, [pc, #144]	; (80010e4 <TIM4_IRQHandler+0xd0>)
 8001052:	881b      	ldrh	r3, [r3, #0]
 8001054:	4619      	mov	r1, r3
 8001056:	4a24      	ldr	r2, [pc, #144]	; (80010e8 <TIM4_IRQHandler+0xd4>)
 8001058:	460b      	mov	r3, r1
 800105a:	005b      	lsls	r3, r3, #1
 800105c:	440b      	add	r3, r1
 800105e:	005b      	lsls	r3, r3, #1
 8001060:	4413      	add	r3, r2
 8001062:	3302      	adds	r3, #2
 8001064:	881b      	ldrh	r3, [r3, #0]
 8001066:	461a      	mov	r2, r3
 8001068:	f240 53dc 	movw	r3, #1500	; 0x5dc
 800106c:	fb03 f302 	mul.w	r3, r3, r2
 8001070:	461a      	mov	r2, r3
 8001072:	4b1e      	ldr	r3, [pc, #120]	; (80010ec <TIM4_IRQHandler+0xd8>)
 8001074:	fba3 2302 	umull	r2, r3, r3, r2
 8001078:	095b      	lsrs	r3, r3, #5
 800107a:	80bb      	strh	r3, [r7, #4]
	pwm3 = (uint16_t)((uint32_t)(PMSM_PWM * sin_arr[sinTableIndex][2]) / STEPS_NUM);
 800107c:	4b19      	ldr	r3, [pc, #100]	; (80010e4 <TIM4_IRQHandler+0xd0>)
 800107e:	881b      	ldrh	r3, [r3, #0]
 8001080:	4619      	mov	r1, r3
 8001082:	4a19      	ldr	r2, [pc, #100]	; (80010e8 <TIM4_IRQHandler+0xd4>)
 8001084:	460b      	mov	r3, r1
 8001086:	005b      	lsls	r3, r3, #1
 8001088:	440b      	add	r3, r1
 800108a:	005b      	lsls	r3, r3, #1
 800108c:	4413      	add	r3, r2
 800108e:	3304      	adds	r3, #4
 8001090:	881b      	ldrh	r3, [r3, #0]
 8001092:	461a      	mov	r2, r3
 8001094:	f240 53dc 	movw	r3, #1500	; 0x5dc
 8001098:	fb03 f302 	mul.w	r3, r3, r2
 800109c:	461a      	mov	r2, r3
 800109e:	4b13      	ldr	r3, [pc, #76]	; (80010ec <TIM4_IRQHandler+0xd8>)
 80010a0:	fba3 2302 	umull	r2, r3, r3, r2
 80010a4:	095b      	lsrs	r3, r3, #5
 80010a6:	807b      	strh	r3, [r7, #2]
	//Set PWM
	TIM1->CCR1 = pwm1;
 80010a8:	4a11      	ldr	r2, [pc, #68]	; (80010f0 <TIM4_IRQHandler+0xdc>)
 80010aa:	88fb      	ldrh	r3, [r7, #6]
 80010ac:	6353      	str	r3, [r2, #52]	; 0x34
	TIM1->CCR2 = pwm2;
 80010ae:	4a10      	ldr	r2, [pc, #64]	; (80010f0 <TIM4_IRQHandler+0xdc>)
 80010b0:	88bb      	ldrh	r3, [r7, #4]
 80010b2:	6393      	str	r3, [r2, #56]	; 0x38
	TIM1->CCR3 = pwm3;
 80010b4:	4a0e      	ldr	r2, [pc, #56]	; (80010f0 <TIM4_IRQHandler+0xdc>)
 80010b6:	887b      	ldrh	r3, [r7, #2]
 80010b8:	63d3      	str	r3, [r2, #60]	; 0x3c
	// Increment position in sine table
	sinTableIndex++;
 80010ba:	4b0a      	ldr	r3, [pc, #40]	; (80010e4 <TIM4_IRQHandler+0xd0>)
 80010bc:	881b      	ldrh	r3, [r3, #0]
 80010be:	3301      	adds	r3, #1
 80010c0:	b29a      	uxth	r2, r3
 80010c2:	4b08      	ldr	r3, [pc, #32]	; (80010e4 <TIM4_IRQHandler+0xd0>)
 80010c4:	801a      	strh	r2, [r3, #0]
	if(sinTableIndex > STEPS_NUM-1) sinTableIndex = 0;
 80010c6:	4b07      	ldr	r3, [pc, #28]	; (80010e4 <TIM4_IRQHandler+0xd0>)
 80010c8:	881b      	ldrh	r3, [r3, #0]
 80010ca:	f5b3 7ffa 	cmp.w	r3, #500	; 0x1f4
 80010ce:	d302      	bcc.n	80010d6 <TIM4_IRQHandler+0xc2>
 80010d0:	4b04      	ldr	r3, [pc, #16]	; (80010e4 <TIM4_IRQHandler+0xd0>)
 80010d2:	2200      	movs	r2, #0
 80010d4:	801a      	strh	r2, [r3, #0]
}
 80010d6:	bf00      	nop
 80010d8:	370c      	adds	r7, #12
 80010da:	46bd      	mov	sp, r7
 80010dc:	bc80      	pop	{r7}
 80010de:	4770      	bx	lr
 80010e0:	40000800 	.word	0x40000800
 80010e4:	2000003a 	.word	0x2000003a
 80010e8:	2000003c 	.word	0x2000003c
 80010ec:	10624dd3 	.word	0x10624dd3
 80010f0:	40012c00 	.word	0x40012c00

080010f4 <Encoder_Turn>:
 80010f4:	b480      	push	{r7}
 80010f6:	b083      	sub	sp, #12
 80010f8:	af00      	add	r7, sp, #0
 80010fa:	6078      	str	r0, [r7, #4]
 80010fc:	460b      	mov	r3, r1
 80010fe:	807b      	strh	r3, [r7, #2]
 8001100:	4613      	mov	r3, r2
 8001102:	803b      	strh	r3, [r7, #0]
 8001104:	4b18      	ldr	r3, [pc, #96]	; (8001168 <Encoder_Turn+0x74>)
 8001106:	781b      	ldrb	r3, [r3, #0]
 8001108:	2b02      	cmp	r3, #2
 800110a:	d002      	beq.n	8001112 <Encoder_Turn+0x1e>
 800110c:	2b03      	cmp	r3, #3
 800110e:	d013      	beq.n	8001138 <Encoder_Turn+0x44>
 8001110:	e025      	b.n	800115e <Encoder_Turn+0x6a>
 8001112:	687b      	ldr	r3, [r7, #4]
 8001114:	881b      	ldrh	r3, [r3, #0]
 8001116:	883a      	ldrh	r2, [r7, #0]
 8001118:	429a      	cmp	r2, r3
 800111a:	d906      	bls.n	800112a <Encoder_Turn+0x36>
 800111c:	687b      	ldr	r3, [r7, #4]
 800111e:	881b      	ldrh	r3, [r3, #0]
 8001120:	3301      	adds	r3, #1
 8001122:	b29a      	uxth	r2, r3
 8001124:	687b      	ldr	r3, [r7, #4]
 8001126:	801a      	strh	r2, [r3, #0]
 8001128:	e002      	b.n	8001130 <Encoder_Turn+0x3c>
 800112a:	687b      	ldr	r3, [r7, #4]
 800112c:	887a      	ldrh	r2, [r7, #2]
 800112e:	801a      	strh	r2, [r3, #0]
 8001130:	4b0d      	ldr	r3, [pc, #52]	; (8001168 <Encoder_Turn+0x74>)
 8001132:	2200      	movs	r2, #0
 8001134:	701a      	strb	r2, [r3, #0]
 8001136:	e012      	b.n	800115e <Encoder_Turn+0x6a>
 8001138:	687b      	ldr	r3, [r7, #4]
 800113a:	881b      	ldrh	r3, [r3, #0]
 800113c:	887a      	ldrh	r2, [r7, #2]
 800113e:	429a      	cmp	r2, r3
 8001140:	d206      	bcs.n	8001150 <Encoder_Turn+0x5c>
 8001142:	687b      	ldr	r3, [r7, #4]
 8001144:	881b      	ldrh	r3, [r3, #0]
 8001146:	3b01      	subs	r3, #1
 8001148:	b29a      	uxth	r2, r3
 800114a:	687b      	ldr	r3, [r7, #4]
 800114c:	801a      	strh	r2, [r3, #0]
 800114e:	e002      	b.n	8001156 <Encoder_Turn+0x62>
 8001150:	687b      	ldr	r3, [r7, #4]
 8001152:	883a      	ldrh	r2, [r7, #0]
 8001154:	801a      	strh	r2, [r3, #0]
 8001156:	4b04      	ldr	r3, [pc, #16]	; (8001168 <Encoder_Turn+0x74>)
 8001158:	2200      	movs	r2, #0
 800115a:	701a      	strb	r2, [r3, #0]
 800115c:	bf00      	nop
 800115e:	bf00      	nop
 8001160:	370c      	adds	r7, #12
 8001162:	46bd      	mov	sp, r7
 8001164:	bc80      	pop	{r7}
 8001166:	4770      	bx	lr
 8001168:	20000bf4 	.word	0x20000bf4

0800116c <Encoder_Loop>:
 800116c:	b480      	push	{r7}
 800116e:	af00      	add	r7, sp, #0
 8001170:	4b42      	ldr	r3, [pc, #264]	; (800127c <Encoder_Loop+0x110>)
 8001172:	781b      	ldrb	r3, [r3, #0]
 8001174:	2b00      	cmp	r3, #0
 8001176:	d002      	beq.n	800117e <Encoder_Loop+0x12>
 8001178:	2b01      	cmp	r3, #1
 800117a:	d010      	beq.n	800119e <Encoder_Loop+0x32>
 800117c:	e031      	b.n	80011e2 <Encoder_Loop+0x76>
 800117e:	4b40      	ldr	r3, [pc, #256]	; (8001280 <Encoder_Loop+0x114>)
 8001180:	689b      	ldr	r3, [r3, #8]
 8001182:	f403 5380 	and.w	r3, r3, #4096	; 0x1000
 8001186:	2b00      	cmp	r3, #0
 8001188:	d128      	bne.n	80011dc <Encoder_Loop+0x70>
 800118a:	4b3d      	ldr	r3, [pc, #244]	; (8001280 <Encoder_Loop+0x114>)
 800118c:	689b      	ldr	r3, [r3, #8]
 800118e:	f403 6300 	and.w	r3, r3, #2048	; 0x800
 8001192:	2b00      	cmp	r3, #0
 8001194:	d122      	bne.n	80011dc <Encoder_Loop+0x70>
 8001196:	4b39      	ldr	r3, [pc, #228]	; (800127c <Encoder_Loop+0x110>)
 8001198:	2201      	movs	r2, #1
 800119a:	701a      	strb	r2, [r3, #0]
 800119c:	e01e      	b.n	80011dc <Encoder_Loop+0x70>
 800119e:	4b38      	ldr	r3, [pc, #224]	; (8001280 <Encoder_Loop+0x114>)
 80011a0:	689b      	ldr	r3, [r3, #8]
 80011a2:	f403 5380 	and.w	r3, r3, #4096	; 0x1000
 80011a6:	2b00      	cmp	r3, #0
 80011a8:	d108      	bne.n	80011bc <Encoder_Loop+0x50>
 80011aa:	4b35      	ldr	r3, [pc, #212]	; (8001280 <Encoder_Loop+0x114>)
 80011ac:	689b      	ldr	r3, [r3, #8]
 80011ae:	f403 6300 	and.w	r3, r3, #2048	; 0x800
 80011b2:	2b00      	cmp	r3, #0
 80011b4:	d002      	beq.n	80011bc <Encoder_Loop+0x50>
 80011b6:	4b31      	ldr	r3, [pc, #196]	; (800127c <Encoder_Loop+0x110>)
 80011b8:	2202      	movs	r2, #2
 80011ba:	701a      	strb	r2, [r3, #0]
 80011bc:	4b30      	ldr	r3, [pc, #192]	; (8001280 <Encoder_Loop+0x114>)
 80011be:	689b      	ldr	r3, [r3, #8]
 80011c0:	f403 5380 	and.w	r3, r3, #4096	; 0x1000
 80011c4:	2b00      	cmp	r3, #0
 80011c6:	d00b      	beq.n	80011e0 <Encoder_Loop+0x74>
 80011c8:	4b2d      	ldr	r3, [pc, #180]	; (8001280 <Encoder_Loop+0x114>)
 80011ca:	689b      	ldr	r3, [r3, #8]
 80011cc:	f403 6300 	and.w	r3, r3, #2048	; 0x800
 80011d0:	2b00      	cmp	r3, #0
 80011d2:	d105      	bne.n	80011e0 <Encoder_Loop+0x74>
 80011d4:	4b29      	ldr	r3, [pc, #164]	; (800127c <Encoder_Loop+0x110>)
 80011d6:	2203      	movs	r2, #3
 80011d8:	701a      	strb	r2, [r3, #0]
 80011da:	e001      	b.n	80011e0 <Encoder_Loop+0x74>
 80011dc:	bf00      	nop
 80011de:	e000      	b.n	80011e2 <Encoder_Loop+0x76>
 80011e0:	bf00      	nop
 80011e2:	4b28      	ldr	r3, [pc, #160]	; (8001284 <Encoder_Loop+0x118>)
 80011e4:	781b      	ldrb	r3, [r3, #0]
 80011e6:	3301      	adds	r3, #1
 80011e8:	b2da      	uxtb	r2, r3
 80011ea:	4b26      	ldr	r3, [pc, #152]	; (8001284 <Encoder_Loop+0x118>)
 80011ec:	701a      	strb	r2, [r3, #0]
 80011ee:	4b25      	ldr	r3, [pc, #148]	; (8001284 <Encoder_Loop+0x118>)
 80011f0:	781b      	ldrb	r3, [r3, #0]
 80011f2:	2b09      	cmp	r3, #9
 80011f4:	d93d      	bls.n	8001272 <Encoder_Loop+0x106>
 80011f6:	4b23      	ldr	r3, [pc, #140]	; (8001284 <Encoder_Loop+0x118>)
 80011f8:	2200      	movs	r2, #0
 80011fa:	701a      	strb	r2, [r3, #0]
 80011fc:	4b22      	ldr	r3, [pc, #136]	; (8001288 <Encoder_Loop+0x11c>)
 80011fe:	781b      	ldrb	r3, [r3, #0]
 8001200:	2b02      	cmp	r3, #2
 8001202:	d811      	bhi.n	8001228 <Encoder_Loop+0xbc>
 8001204:	4b1e      	ldr	r3, [pc, #120]	; (8001280 <Encoder_Loop+0x114>)
 8001206:	689b      	ldr	r3, [r3, #8]
 8001208:	b29b      	uxth	r3, r3
 800120a:	4a1f      	ldr	r2, [pc, #124]	; (8001288 <Encoder_Loop+0x11c>)
 800120c:	7812      	ldrb	r2, [r2, #0]
 800120e:	f403 6380 	and.w	r3, r3, #1024	; 0x400
 8001212:	b299      	uxth	r1, r3
 8001214:	4b1d      	ldr	r3, [pc, #116]	; (800128c <Encoder_Loop+0x120>)
 8001216:	f823 1012 	strh.w	r1, [r3, r2, lsl #1]
 800121a:	4b1b      	ldr	r3, [pc, #108]	; (8001288 <Encoder_Loop+0x11c>)
 800121c:	781b      	ldrb	r3, [r3, #0]
 800121e:	3301      	adds	r3, #1
 8001220:	b2da      	uxtb	r2, r3
 8001222:	4b19      	ldr	r3, [pc, #100]	; (8001288 <Encoder_Loop+0x11c>)
 8001224:	701a      	strb	r2, [r3, #0]
 8001226:	e024      	b.n	8001272 <Encoder_Loop+0x106>
 8001228:	4b17      	ldr	r3, [pc, #92]	; (8001288 <Encoder_Loop+0x11c>)
 800122a:	2200      	movs	r2, #0
 800122c:	701a      	strb	r2, [r3, #0]
 800122e:	4b17      	ldr	r3, [pc, #92]	; (800128c <Encoder_Loop+0x120>)
 8001230:	885a      	ldrh	r2, [r3, #2]
 8001232:	4b16      	ldr	r3, [pc, #88]	; (800128c <Encoder_Loop+0x120>)
 8001234:	8819      	ldrh	r1, [r3, #0]
 8001236:	4b15      	ldr	r3, [pc, #84]	; (800128c <Encoder_Loop+0x120>)
 8001238:	889b      	ldrh	r3, [r3, #4]
 800123a:	430b      	orrs	r3, r1
 800123c:	b29b      	uxth	r3, r3
 800123e:	4013      	ands	r3, r2
 8001240:	b29a      	uxth	r2, r3
 8001242:	4b12      	ldr	r3, [pc, #72]	; (800128c <Encoder_Loop+0x120>)
 8001244:	8819      	ldrh	r1, [r3, #0]
 8001246:	4b11      	ldr	r3, [pc, #68]	; (800128c <Encoder_Loop+0x120>)
 8001248:	889b      	ldrh	r3, [r3, #4]
 800124a:	400b      	ands	r3, r1
 800124c:	b29b      	uxth	r3, r3
 800124e:	4313      	orrs	r3, r2
 8001250:	b29b      	uxth	r3, r3
 8001252:	43db      	mvns	r3, r3
 8001254:	f403 6380 	and.w	r3, r3, #1024	; 0x400
 8001258:	2b00      	cmp	r3, #0
 800125a:	d005      	beq.n	8001268 <Encoder_Loop+0xfc>
 800125c:	4a0c      	ldr	r2, [pc, #48]	; (8001290 <Encoder_Loop+0x124>)
 800125e:	7813      	ldrb	r3, [r2, #0]
 8001260:	f043 0301 	orr.w	r3, r3, #1
 8001264:	7013      	strb	r3, [r2, #0]
 8001266:	e004      	b.n	8001272 <Encoder_Loop+0x106>
 8001268:	4a09      	ldr	r2, [pc, #36]	; (8001290 <Encoder_Loop+0x124>)
 800126a:	7813      	ldrb	r3, [r2, #0]
 800126c:	f36f 0300 	bfc	r3, #0, #1
 8001270:	7013      	strb	r3, [r2, #0]
 8001272:	bf00      	nop
 8001274:	46bd      	mov	sp, r7
 8001276:	bc80      	pop	{r7}
 8001278:	4770      	bx	lr
 800127a:	bf00      	nop
 800127c:	20000bf4 	.word	0x20000bf4
 8001280:	40011000 	.word	0x40011000
 8001284:	20000bf5 	.word	0x20000bf5
 8001288:	20000bf6 	.word	0x20000bf6
 800128c:	20000bf8 	.word	0x20000bf8
 8001290:	20000000 	.word	0x20000000

08001294 <Encoder>:
 8001294:	b480      	push	{r7}
 8001296:	af00      	add	r7, sp, #0
 8001298:	4b02      	ldr	r3, [pc, #8]	; (80012a4 <Encoder+0x10>)
 800129a:	4618      	mov	r0, r3
 800129c:	46bd      	mov	sp, r7
 800129e:	bc80      	pop	{r7}
 80012a0:	4770      	bx	lr
 80012a2:	bf00      	nop
 80012a4:	20000000 	.word	0x20000000

080012a8 <Reset_Handler>:
 80012a8:	480d      	ldr	r0, [pc, #52]	; (80012e0 <LoopForever+0x2>)
 80012aa:	4685      	mov	sp, r0
 80012ac:	f7ff fb84 	bl	80009b8 <SystemInit>
 80012b0:	480c      	ldr	r0, [pc, #48]	; (80012e4 <LoopForever+0x6>)
 80012b2:	490d      	ldr	r1, [pc, #52]	; (80012e8 <LoopForever+0xa>)
 80012b4:	4a0d      	ldr	r2, [pc, #52]	; (80012ec <LoopForever+0xe>)
 80012b6:	2300      	movs	r3, #0
 80012b8:	e002      	b.n	80012c0 <LoopCopyDataInit>

080012ba <CopyDataInit>:
 80012ba:	58d4      	ldr	r4, [r2, r3]
 80012bc:	50c4      	str	r4, [r0, r3]
 80012be:	3304      	adds	r3, #4

080012c0 <LoopCopyDataInit>:
 80012c0:	18c4      	adds	r4, r0, r3
 80012c2:	428c      	cmp	r4, r1
 80012c4:	d3f9      	bcc.n	80012ba <CopyDataInit>
 80012c6:	4a0a      	ldr	r2, [pc, #40]	; (80012f0 <LoopForever+0x12>)
 80012c8:	4c0a      	ldr	r4, [pc, #40]	; (80012f4 <LoopForever+0x16>)
 80012ca:	2300      	movs	r3, #0
 80012cc:	e001      	b.n	80012d2 <LoopFillZerobss>

080012ce <FillZerobss>:
 80012ce:	6013      	str	r3, [r2, #0]
 80012d0:	3204      	adds	r2, #4

080012d2 <LoopFillZerobss>:
 80012d2:	42a2      	cmp	r2, r4
 80012d4:	d3fb      	bcc.n	80012ce <FillZerobss>
 80012d6:	f000 f811 	bl	80012fc <__libc_init_array>
 80012da:	f7ff fe77 	bl	8000fcc <main>

080012de <LoopForever>:
 80012de:	e7fe      	b.n	80012de <LoopForever>
 80012e0:	20005000 	.word	0x20005000
 80012e4:	20000000 	.word	0x20000000
 80012e8:	2000000c 	.word	0x2000000c
 80012ec:	080022a4 	.word	0x080022a4
 80012f0:	2000000c 	.word	0x2000000c
 80012f4:	20000c00 	.word	0x20000c00

080012f8 <ADC1_2_IRQHandler>:
 80012f8:	e7fe      	b.n	80012f8 <ADC1_2_IRQHandler>
	...

080012fc <__libc_init_array>:
 80012fc:	b570      	push	{r4, r5, r6, lr}
 80012fe:	2500      	movs	r5, #0
 8001300:	4e0c      	ldr	r6, [pc, #48]	; (8001334 <__libc_init_array+0x38>)
 8001302:	4c0d      	ldr	r4, [pc, #52]	; (8001338 <__libc_init_array+0x3c>)
 8001304:	1ba4      	subs	r4, r4, r6
 8001306:	10a4      	asrs	r4, r4, #2
 8001308:	42a5      	cmp	r5, r4
 800130a:	d109      	bne.n	8001320 <__libc_init_array+0x24>
 800130c:	f000 fdd2 	bl	8001eb4 <_init>
 8001310:	2500      	movs	r5, #0
 8001312:	4e0a      	ldr	r6, [pc, #40]	; (800133c <__libc_init_array+0x40>)
 8001314:	4c0a      	ldr	r4, [pc, #40]	; (8001340 <__libc_init_array+0x44>)
 8001316:	1ba4      	subs	r4, r4, r6
 8001318:	10a4      	asrs	r4, r4, #2
 800131a:	42a5      	cmp	r5, r4
 800131c:	d105      	bne.n	800132a <__libc_init_array+0x2e>
 800131e:	bd70      	pop	{r4, r5, r6, pc}
 8001320:	f856 3025 	ldr.w	r3, [r6, r5, lsl #2]
 8001324:	4798      	blx	r3
 8001326:	3501      	adds	r5, #1
 8001328:	e7ee      	b.n	8001308 <__libc_init_array+0xc>
 800132a:	f856 3025 	ldr.w	r3, [r6, r5, lsl #2]
 800132e:	4798      	blx	r3
 8001330:	3501      	adds	r5, #1
 8001332:	e7f2      	b.n	800131a <__libc_init_array+0x1e>
 8001334:	0800229c 	.word	0x0800229c
 8001338:	0800229c 	.word	0x0800229c
 800133c:	0800229c 	.word	0x0800229c
 8001340:	080022a0 	.word	0x080022a0

08001344 <sinf>:
 8001344:	b507      	push	{r0, r1, r2, lr}
 8001346:	4a19      	ldr	r2, [pc, #100]	; (80013ac <sinf+0x68>)
 8001348:	f020 4300 	bic.w	r3, r0, #2147483648	; 0x80000000
 800134c:	4293      	cmp	r3, r2
 800134e:	4601      	mov	r1, r0
 8001350:	dc04      	bgt.n	800135c <sinf+0x18>
 8001352:	2200      	movs	r2, #0
 8001354:	2100      	movs	r1, #0
 8001356:	f000 fca1 	bl	8001c9c <__kernel_sinf>
 800135a:	e004      	b.n	8001366 <sinf+0x22>
 800135c:	f1b3 4fff 	cmp.w	r3, #2139095040	; 0x7f800000
 8001360:	db04      	blt.n	800136c <sinf+0x28>
 8001362:	f7fe ff09 	bl	8000178 <__aeabi_fsub>
 8001366:	b003      	add	sp, #12
 8001368:	f85d fb04 	ldr.w	pc, [sp], #4
 800136c:	4669      	mov	r1, sp
 800136e:	f000 f81f 	bl	80013b0 <__ieee754_rem_pio2f>
 8001372:	f000 0003 	and.w	r0, r0, #3
 8001376:	2801      	cmp	r0, #1
 8001378:	d006      	beq.n	8001388 <sinf+0x44>
 800137a:	2802      	cmp	r0, #2
 800137c:	d009      	beq.n	8001392 <sinf+0x4e>
 800137e:	b980      	cbnz	r0, 80013a2 <sinf+0x5e>
 8001380:	2201      	movs	r2, #1
 8001382:	9901      	ldr	r1, [sp, #4]
 8001384:	9800      	ldr	r0, [sp, #0]
 8001386:	e7e6      	b.n	8001356 <sinf+0x12>
 8001388:	9901      	ldr	r1, [sp, #4]
 800138a:	9800      	ldr	r0, [sp, #0]
 800138c:	f000 f968 	bl	8001660 <__kernel_cosf>
 8001390:	e7e9      	b.n	8001366 <sinf+0x22>
 8001392:	2201      	movs	r2, #1
 8001394:	9901      	ldr	r1, [sp, #4]
 8001396:	9800      	ldr	r0, [sp, #0]
 8001398:	f000 fc80 	bl	8001c9c <__kernel_sinf>
 800139c:	f100 4000 	add.w	r0, r0, #2147483648	; 0x80000000
 80013a0:	e7e1      	b.n	8001366 <sinf+0x22>
 80013a2:	9901      	ldr	r1, [sp, #4]
 80013a4:	9800      	ldr	r0, [sp, #0]
 80013a6:	f000 f95b 	bl	8001660 <__kernel_cosf>
 80013aa:	e7f7      	b.n	800139c <sinf+0x58>
 80013ac:	3f490fd8 	.word	0x3f490fd8

080013b0 <__ieee754_rem_pio2f>:
 80013b0:	e92d 4ff0 	stmdb	sp!, {r4, r5, r6, r7, r8, r9, sl, fp, lr}
 80013b4:	4a9d      	ldr	r2, [pc, #628]	; (800162c <__ieee754_rem_pio2f+0x27c>)
 80013b6:	f020 4500 	bic.w	r5, r0, #2147483648	; 0x80000000
 80013ba:	4295      	cmp	r5, r2
 80013bc:	b087      	sub	sp, #28
 80013be:	460c      	mov	r4, r1
 80013c0:	4607      	mov	r7, r0
 80013c2:	dc04      	bgt.n	80013ce <__ieee754_rem_pio2f+0x1e>
 80013c4:	2300      	movs	r3, #0
 80013c6:	6020      	str	r0, [r4, #0]
 80013c8:	604b      	str	r3, [r1, #4]
 80013ca:	2600      	movs	r6, #0
 80013cc:	e01a      	b.n	8001404 <__ieee754_rem_pio2f+0x54>
 80013ce:	4a98      	ldr	r2, [pc, #608]	; (8001630 <__ieee754_rem_pio2f+0x280>)
 80013d0:	4295      	cmp	r5, r2
 80013d2:	dc4b      	bgt.n	800146c <__ieee754_rem_pio2f+0xbc>
 80013d4:	2800      	cmp	r0, #0
 80013d6:	f025 050f 	bic.w	r5, r5, #15
 80013da:	4996      	ldr	r1, [pc, #600]	; (8001634 <__ieee754_rem_pio2f+0x284>)
 80013dc:	4e96      	ldr	r6, [pc, #600]	; (8001638 <__ieee754_rem_pio2f+0x288>)
 80013de:	dd23      	ble.n	8001428 <__ieee754_rem_pio2f+0x78>
 80013e0:	f7fe feca 	bl	8000178 <__aeabi_fsub>
 80013e4:	42b5      	cmp	r5, r6
 80013e6:	4607      	mov	r7, r0
 80013e8:	d010      	beq.n	800140c <__ieee754_rem_pio2f+0x5c>
 80013ea:	4994      	ldr	r1, [pc, #592]	; (800163c <__ieee754_rem_pio2f+0x28c>)
 80013ec:	f7fe fec4 	bl	8000178 <__aeabi_fsub>
 80013f0:	4601      	mov	r1, r0
 80013f2:	6020      	str	r0, [r4, #0]
 80013f4:	4638      	mov	r0, r7
 80013f6:	f7fe febf 	bl	8000178 <__aeabi_fsub>
 80013fa:	4990      	ldr	r1, [pc, #576]	; (800163c <__ieee754_rem_pio2f+0x28c>)
 80013fc:	f7fe febc 	bl	8000178 <__aeabi_fsub>
 8001400:	2601      	movs	r6, #1
 8001402:	6060      	str	r0, [r4, #4]
 8001404:	4630      	mov	r0, r6
 8001406:	b007      	add	sp, #28
 8001408:	e8bd 8ff0 	ldmia.w	sp!, {r4, r5, r6, r7, r8, r9, sl, fp, pc}
 800140c:	498c      	ldr	r1, [pc, #560]	; (8001640 <__ieee754_rem_pio2f+0x290>)
 800140e:	f7fe feb3 	bl	8000178 <__aeabi_fsub>
 8001412:	498c      	ldr	r1, [pc, #560]	; (8001644 <__ieee754_rem_pio2f+0x294>)
 8001414:	4605      	mov	r5, r0
 8001416:	f7fe feaf 	bl	8000178 <__aeabi_fsub>
 800141a:	4601      	mov	r1, r0
 800141c:	6020      	str	r0, [r4, #0]
 800141e:	4628      	mov	r0, r5
 8001420:	f7fe feaa 	bl	8000178 <__aeabi_fsub>
 8001424:	4987      	ldr	r1, [pc, #540]	; (8001644 <__ieee754_rem_pio2f+0x294>)
 8001426:	e7e9      	b.n	80013fc <__ieee754_rem_pio2f+0x4c>
 8001428:	f7fe fea8 	bl	800017c <__addsf3>
 800142c:	42b5      	cmp	r5, r6
 800142e:	4607      	mov	r7, r0
 8001430:	d00e      	beq.n	8001450 <__ieee754_rem_pio2f+0xa0>
 8001432:	4982      	ldr	r1, [pc, #520]	; (800163c <__ieee754_rem_pio2f+0x28c>)
 8001434:	f7fe fea2 	bl	800017c <__addsf3>
 8001438:	4601      	mov	r1, r0
 800143a:	6020      	str	r0, [r4, #0]
 800143c:	4638      	mov	r0, r7
 800143e:	f7fe fe9b 	bl	8000178 <__aeabi_fsub>
 8001442:	497e      	ldr	r1, [pc, #504]	; (800163c <__ieee754_rem_pio2f+0x28c>)
 8001444:	f7fe fe9a 	bl	800017c <__addsf3>
 8001448:	f04f 36ff 	mov.w	r6, #4294967295
 800144c:	6060      	str	r0, [r4, #4]
 800144e:	e7d9      	b.n	8001404 <__ieee754_rem_pio2f+0x54>
 8001450:	497b      	ldr	r1, [pc, #492]	; (8001640 <__ieee754_rem_pio2f+0x290>)
 8001452:	f7fe fe93 	bl	800017c <__addsf3>
 8001456:	497b      	ldr	r1, [pc, #492]	; (8001644 <__ieee754_rem_pio2f+0x294>)
 8001458:	4605      	mov	r5, r0
 800145a:	f7fe fe8f 	bl	800017c <__addsf3>
 800145e:	4601      	mov	r1, r0
 8001460:	6020      	str	r0, [r4, #0]
 8001462:	4628      	mov	r0, r5
 8001464:	f7fe fe88 	bl	8000178 <__aeabi_fsub>
 8001468:	4976      	ldr	r1, [pc, #472]	; (8001644 <__ieee754_rem_pio2f+0x294>)
 800146a:	e7eb      	b.n	8001444 <__ieee754_rem_pio2f+0x94>
 800146c:	4a76      	ldr	r2, [pc, #472]	; (8001648 <__ieee754_rem_pio2f+0x298>)
 800146e:	4295      	cmp	r5, r2
 8001470:	f300 808c 	bgt.w	800158c <__ieee754_rem_pio2f+0x1dc>
 8001474:	f000 fc88 	bl	8001d88 <fabsf>
 8001478:	4974      	ldr	r1, [pc, #464]	; (800164c <__ieee754_rem_pio2f+0x29c>)
 800147a:	4680      	mov	r8, r0
 800147c:	f7fe ff86 	bl	800038c <__aeabi_fmul>
 8001480:	f04f 517c 	mov.w	r1, #1056964608	; 0x3f000000
 8001484:	f7fe fe7a 	bl	800017c <__addsf3>
 8001488:	f7ff f946 	bl	8000718 <__aeabi_f2iz>
 800148c:	4606      	mov	r6, r0
 800148e:	f7fe ff29 	bl	80002e4 <__aeabi_i2f>
 8001492:	4968      	ldr	r1, [pc, #416]	; (8001634 <__ieee754_rem_pio2f+0x284>)
 8001494:	4682      	mov	sl, r0
 8001496:	f7fe ff79 	bl	800038c <__aeabi_fmul>
 800149a:	4601      	mov	r1, r0
 800149c:	4640      	mov	r0, r8
 800149e:	f7fe fe6b 	bl	8000178 <__aeabi_fsub>
 80014a2:	4966      	ldr	r1, [pc, #408]	; (800163c <__ieee754_rem_pio2f+0x28c>)
 80014a4:	4680      	mov	r8, r0
 80014a6:	4650      	mov	r0, sl
 80014a8:	f7fe ff70 	bl	800038c <__aeabi_fmul>
 80014ac:	2e1f      	cmp	r6, #31
 80014ae:	4681      	mov	r9, r0
 80014b0:	dc0c      	bgt.n	80014cc <__ieee754_rem_pio2f+0x11c>
 80014b2:	4a67      	ldr	r2, [pc, #412]	; (8001650 <__ieee754_rem_pio2f+0x2a0>)
 80014b4:	1e71      	subs	r1, r6, #1
 80014b6:	f852 2021 	ldr.w	r2, [r2, r1, lsl #2]
 80014ba:	f025 03ff 	bic.w	r3, r5, #255	; 0xff
 80014be:	4293      	cmp	r3, r2
 80014c0:	d004      	beq.n	80014cc <__ieee754_rem_pio2f+0x11c>
 80014c2:	4649      	mov	r1, r9
 80014c4:	4640      	mov	r0, r8
 80014c6:	f7fe fe57 	bl	8000178 <__aeabi_fsub>
 80014ca:	e009      	b.n	80014e0 <__ieee754_rem_pio2f+0x130>
 80014cc:	4649      	mov	r1, r9
 80014ce:	4640      	mov	r0, r8
 80014d0:	f7fe fe52 	bl	8000178 <__aeabi_fsub>
 80014d4:	15ed      	asrs	r5, r5, #23
 80014d6:	f3c0 53c7 	ubfx	r3, r0, #23, #8
 80014da:	1aeb      	subs	r3, r5, r3
 80014dc:	2b08      	cmp	r3, #8
 80014de:	dc01      	bgt.n	80014e4 <__ieee754_rem_pio2f+0x134>
 80014e0:	6020      	str	r0, [r4, #0]
 80014e2:	e024      	b.n	800152e <__ieee754_rem_pio2f+0x17e>
 80014e4:	4956      	ldr	r1, [pc, #344]	; (8001640 <__ieee754_rem_pio2f+0x290>)
 80014e6:	4650      	mov	r0, sl
 80014e8:	f7fe ff50 	bl	800038c <__aeabi_fmul>
 80014ec:	4681      	mov	r9, r0
 80014ee:	4601      	mov	r1, r0
 80014f0:	4640      	mov	r0, r8
 80014f2:	f7fe fe41 	bl	8000178 <__aeabi_fsub>
 80014f6:	4601      	mov	r1, r0
 80014f8:	4683      	mov	fp, r0
 80014fa:	4640      	mov	r0, r8
 80014fc:	f7fe fe3c 	bl	8000178 <__aeabi_fsub>
 8001500:	4649      	mov	r1, r9
 8001502:	f7fe fe39 	bl	8000178 <__aeabi_fsub>
 8001506:	4680      	mov	r8, r0
 8001508:	494e      	ldr	r1, [pc, #312]	; (8001644 <__ieee754_rem_pio2f+0x294>)
 800150a:	4650      	mov	r0, sl
 800150c:	f7fe ff3e 	bl	800038c <__aeabi_fmul>
 8001510:	4641      	mov	r1, r8
 8001512:	f7fe fe31 	bl	8000178 <__aeabi_fsub>
 8001516:	4601      	mov	r1, r0
 8001518:	4681      	mov	r9, r0
 800151a:	4658      	mov	r0, fp
 800151c:	f7fe fe2c 	bl	8000178 <__aeabi_fsub>
 8001520:	f3c0 53c7 	ubfx	r3, r0, #23, #8
 8001524:	1aed      	subs	r5, r5, r3
 8001526:	2d19      	cmp	r5, #25
 8001528:	dc15      	bgt.n	8001556 <__ieee754_rem_pio2f+0x1a6>
 800152a:	46d8      	mov	r8, fp
 800152c:	6020      	str	r0, [r4, #0]
 800152e:	6825      	ldr	r5, [r4, #0]
 8001530:	4640      	mov	r0, r8
 8001532:	4629      	mov	r1, r5
 8001534:	f7fe fe20 	bl	8000178 <__aeabi_fsub>
 8001538:	4649      	mov	r1, r9
 800153a:	f7fe fe1d 	bl	8000178 <__aeabi_fsub>
 800153e:	2f00      	cmp	r7, #0
 8001540:	6060      	str	r0, [r4, #4]
 8001542:	f6bf af5f 	bge.w	8001404 <__ieee754_rem_pio2f+0x54>
 8001546:	f105 4500 	add.w	r5, r5, #2147483648	; 0x80000000
 800154a:	f100 4000 	add.w	r0, r0, #2147483648	; 0x80000000
 800154e:	6025      	str	r5, [r4, #0]
 8001550:	6060      	str	r0, [r4, #4]
 8001552:	4276      	negs	r6, r6
 8001554:	e756      	b.n	8001404 <__ieee754_rem_pio2f+0x54>
 8001556:	493f      	ldr	r1, [pc, #252]	; (8001654 <__ieee754_rem_pio2f+0x2a4>)
 8001558:	4650      	mov	r0, sl
 800155a:	f7fe ff17 	bl	800038c <__aeabi_fmul>
 800155e:	4605      	mov	r5, r0
 8001560:	4601      	mov	r1, r0
 8001562:	4658      	mov	r0, fp
 8001564:	f7fe fe08 	bl	8000178 <__aeabi_fsub>
 8001568:	4601      	mov	r1, r0
 800156a:	4680      	mov	r8, r0
 800156c:	4658      	mov	r0, fp
 800156e:	f7fe fe03 	bl	8000178 <__aeabi_fsub>
 8001572:	4629      	mov	r1, r5
 8001574:	f7fe fe00 	bl	8000178 <__aeabi_fsub>
 8001578:	4605      	mov	r5, r0
 800157a:	4937      	ldr	r1, [pc, #220]	; (8001658 <__ieee754_rem_pio2f+0x2a8>)
 800157c:	4650      	mov	r0, sl
 800157e:	f7fe ff05 	bl	800038c <__aeabi_fmul>
 8001582:	4629      	mov	r1, r5
 8001584:	f7fe fdf8 	bl	8000178 <__aeabi_fsub>
 8001588:	4681      	mov	r9, r0
 800158a:	e79a      	b.n	80014c2 <__ieee754_rem_pio2f+0x112>
 800158c:	f1b5 4fff 	cmp.w	r5, #2139095040	; 0x7f800000
 8001590:	db05      	blt.n	800159e <__ieee754_rem_pio2f+0x1ee>
 8001592:	4601      	mov	r1, r0
 8001594:	f7fe fdf0 	bl	8000178 <__aeabi_fsub>
 8001598:	6060      	str	r0, [r4, #4]
 800159a:	6020      	str	r0, [r4, #0]
 800159c:	e715      	b.n	80013ca <__ieee754_rem_pio2f+0x1a>
 800159e:	15ee      	asrs	r6, r5, #23
 80015a0:	3e86      	subs	r6, #134	; 0x86
 80015a2:	eba5 55c6 	sub.w	r5, r5, r6, lsl #23
 80015a6:	4628      	mov	r0, r5
 80015a8:	f7ff f8b6 	bl	8000718 <__aeabi_f2iz>
 80015ac:	f7fe fe9a 	bl	80002e4 <__aeabi_i2f>
 80015b0:	4601      	mov	r1, r0
 80015b2:	9003      	str	r0, [sp, #12]
 80015b4:	4628      	mov	r0, r5
 80015b6:	f7fe fddf 	bl	8000178 <__aeabi_fsub>
 80015ba:	f04f 4187 	mov.w	r1, #1132462080	; 0x43800000
 80015be:	f7fe fee5 	bl	800038c <__aeabi_fmul>
 80015c2:	4680      	mov	r8, r0
 80015c4:	f7ff f8a8 	bl	8000718 <__aeabi_f2iz>
 80015c8:	f7fe fe8c 	bl	80002e4 <__aeabi_i2f>
 80015cc:	4601      	mov	r1, r0
 80015ce:	9004      	str	r0, [sp, #16]
 80015d0:	4605      	mov	r5, r0
 80015d2:	4640      	mov	r0, r8
 80015d4:	f7fe fdd0 	bl	8000178 <__aeabi_fsub>
 80015d8:	f04f 4187 	mov.w	r1, #1132462080	; 0x43800000
 80015dc:	f7fe fed6 	bl	800038c <__aeabi_fmul>
 80015e0:	2100      	movs	r1, #0
 80015e2:	9005      	str	r0, [sp, #20]
 80015e4:	f7ff f866 	bl	80006b4 <__aeabi_fcmpeq>
 80015e8:	b1e8      	cbz	r0, 8001626 <__ieee754_rem_pio2f+0x276>
 80015ea:	2100      	movs	r1, #0
 80015ec:	4628      	mov	r0, r5
 80015ee:	f7ff f861 	bl	80006b4 <__aeabi_fcmpeq>
 80015f2:	2800      	cmp	r0, #0
 80015f4:	bf14      	ite	ne
 80015f6:	2301      	movne	r3, #1
 80015f8:	2302      	moveq	r3, #2
 80015fa:	4a18      	ldr	r2, [pc, #96]	; (800165c <__ieee754_rem_pio2f+0x2ac>)
 80015fc:	4621      	mov	r1, r4
 80015fe:	9201      	str	r2, [sp, #4]
 8001600:	2202      	movs	r2, #2
 8001602:	a803      	add	r0, sp, #12
 8001604:	9200      	str	r2, [sp, #0]
 8001606:	4632      	mov	r2, r6
 8001608:	f000 f8aa 	bl	8001760 <__kernel_rem_pio2f>
 800160c:	2f00      	cmp	r7, #0
 800160e:	4606      	mov	r6, r0
 8001610:	f6bf aef8 	bge.w	8001404 <__ieee754_rem_pio2f+0x54>
 8001614:	6823      	ldr	r3, [r4, #0]
 8001616:	f103 4300 	add.w	r3, r3, #2147483648	; 0x80000000
 800161a:	6023      	str	r3, [r4, #0]
 800161c:	6863      	ldr	r3, [r4, #4]
 800161e:	f103 4300 	add.w	r3, r3, #2147483648	; 0x80000000
 8001622:	6063      	str	r3, [r4, #4]
 8001624:	e795      	b.n	8001552 <__ieee754_rem_pio2f+0x1a2>
 8001626:	2303      	movs	r3, #3
 8001628:	e7e7      	b.n	80015fa <__ieee754_rem_pio2f+0x24a>
 800162a:	bf00      	nop
 800162c:	3f490fd8 	.word	0x3f490fd8
 8001630:	4016cbe3 	.word	0x4016cbe3
 8001634:	3fc90f80 	.word	0x3fc90f80
 8001638:	3fc90fd0 	.word	0x3fc90fd0
 800163c:	37354443 	.word	0x37354443
 8001640:	37354400 	.word	0x37354400
 8001644:	2e85a308 	.word	0x2e85a308
 8001648:	43490f80 	.word	0x43490f80
 800164c:	3f22f984 	.word	0x3f22f984
 8001650:	08001ecc 	.word	0x08001ecc
 8001654:	2e85a300 	.word	0x2e85a300
 8001658:	248d3132 	.word	0x248d3132
 800165c:	08001f4c 	.word	0x08001f4c

08001660 <__kernel_cosf>:
 8001660:	e92d 41f0 	stmdb	sp!, {r4, r5, r6, r7, r8, lr}
 8001664:	f020 4400 	bic.w	r4, r0, #2147483648	; 0x80000000
 8001668:	f1b4 5f48 	cmp.w	r4, #838860800	; 0x32000000
 800166c:	4606      	mov	r6, r0
 800166e:	4688      	mov	r8, r1
 8001670:	da03      	bge.n	800167a <__kernel_cosf+0x1a>
 8001672:	f7ff f851 	bl	8000718 <__aeabi_f2iz>
 8001676:	2800      	cmp	r0, #0
 8001678:	d05c      	beq.n	8001734 <__kernel_cosf+0xd4>
 800167a:	4631      	mov	r1, r6
 800167c:	4630      	mov	r0, r6
 800167e:	f7fe fe85 	bl	800038c <__aeabi_fmul>
 8001682:	f04f 517c 	mov.w	r1, #1056964608	; 0x3f000000
 8001686:	4605      	mov	r5, r0
 8001688:	f7fe fe80 	bl	800038c <__aeabi_fmul>
 800168c:	492b      	ldr	r1, [pc, #172]	; (800173c <__kernel_cosf+0xdc>)
 800168e:	4607      	mov	r7, r0
 8001690:	4628      	mov	r0, r5
 8001692:	f7fe fe7b 	bl	800038c <__aeabi_fmul>
 8001696:	492a      	ldr	r1, [pc, #168]	; (8001740 <__kernel_cosf+0xe0>)
 8001698:	f7fe fd70 	bl	800017c <__addsf3>
 800169c:	4629      	mov	r1, r5
 800169e:	f7fe fe75 	bl	800038c <__aeabi_fmul>
 80016a2:	4928      	ldr	r1, [pc, #160]	; (8001744 <__kernel_cosf+0xe4>)
 80016a4:	f7fe fd68 	bl	8000178 <__aeabi_fsub>
 80016a8:	4629      	mov	r1, r5
 80016aa:	f7fe fe6f 	bl	800038c <__aeabi_fmul>
 80016ae:	4926      	ldr	r1, [pc, #152]	; (8001748 <__kernel_cosf+0xe8>)
 80016b0:	f7fe fd64 	bl	800017c <__addsf3>
 80016b4:	4629      	mov	r1, r5
 80016b6:	f7fe fe69 	bl	800038c <__aeabi_fmul>
 80016ba:	4924      	ldr	r1, [pc, #144]	; (800174c <__kernel_cosf+0xec>)
 80016bc:	f7fe fd5c 	bl	8000178 <__aeabi_fsub>
 80016c0:	4629      	mov	r1, r5
 80016c2:	f7fe fe63 	bl	800038c <__aeabi_fmul>
 80016c6:	4922      	ldr	r1, [pc, #136]	; (8001750 <__kernel_cosf+0xf0>)
 80016c8:	f7fe fd58 	bl	800017c <__addsf3>
 80016cc:	4629      	mov	r1, r5
 80016ce:	f7fe fe5d 	bl	800038c <__aeabi_fmul>
 80016d2:	4629      	mov	r1, r5
 80016d4:	f7fe fe5a 	bl	800038c <__aeabi_fmul>
 80016d8:	4641      	mov	r1, r8
 80016da:	4605      	mov	r5, r0
 80016dc:	4630      	mov	r0, r6
 80016de:	f7fe fe55 	bl	800038c <__aeabi_fmul>
 80016e2:	4601      	mov	r1, r0
 80016e4:	4628      	mov	r0, r5
 80016e6:	f7fe fd47 	bl	8000178 <__aeabi_fsub>
 80016ea:	4b1a      	ldr	r3, [pc, #104]	; (8001754 <__kernel_cosf+0xf4>)
 80016ec:	4605      	mov	r5, r0
 80016ee:	429c      	cmp	r4, r3
 80016f0:	dc0a      	bgt.n	8001708 <__kernel_cosf+0xa8>
 80016f2:	4601      	mov	r1, r0
 80016f4:	4638      	mov	r0, r7
 80016f6:	f7fe fd3f 	bl	8000178 <__aeabi_fsub>
 80016fa:	4601      	mov	r1, r0
 80016fc:	f04f 507e 	mov.w	r0, #1065353216	; 0x3f800000
 8001700:	f7fe fd3a 	bl	8000178 <__aeabi_fsub>
 8001704:	e8bd 81f0 	ldmia.w	sp!, {r4, r5, r6, r7, r8, pc}
 8001708:	4b13      	ldr	r3, [pc, #76]	; (8001758 <__kernel_cosf+0xf8>)
 800170a:	f04f 507e 	mov.w	r0, #1065353216	; 0x3f800000
 800170e:	429c      	cmp	r4, r3
 8001710:	bfcc      	ite	gt
 8001712:	4c12      	ldrgt	r4, [pc, #72]	; (800175c <__kernel_cosf+0xfc>)
 8001714:	f104 447f 	addle.w	r4, r4, #4278190080	; 0xff000000
 8001718:	4621      	mov	r1, r4
 800171a:	f7fe fd2d 	bl	8000178 <__aeabi_fsub>
 800171e:	4621      	mov	r1, r4
 8001720:	4606      	mov	r6, r0
 8001722:	4638      	mov	r0, r7
 8001724:	f7fe fd28 	bl	8000178 <__aeabi_fsub>
 8001728:	4629      	mov	r1, r5
 800172a:	f7fe fd25 	bl	8000178 <__aeabi_fsub>
 800172e:	4601      	mov	r1, r0
 8001730:	4630      	mov	r0, r6
 8001732:	e7e5      	b.n	8001700 <__kernel_cosf+0xa0>
 8001734:	f04f 507e 	mov.w	r0, #1065353216	; 0x3f800000
 8001738:	e7e4      	b.n	8001704 <__kernel_cosf+0xa4>
 800173a:	bf00      	nop
 800173c:	ad47d74e 	.word	0xad47d74e
 8001740:	310f74f6 	.word	0x310f74f6
 8001744:	3493f27c 	.word	0x3493f27c
 8001748:	37d00d01 	.word	0x37d00d01
 800174c:	3ab60b61 	.word	0x3ab60b61
 8001750:	3d2aaaab 	.word	0x3d2aaaab
 8001754:	3e999999 	.word	0x3e999999
 8001758:	3f480000 	.word	0x3f480000
 800175c:	3e900000 	.word	0x3e900000

08001760 <__kernel_rem_pio2f>:
 8001760:	e92d 4ff0 	stmdb	sp!, {r4, r5, r6, r7, r8, r9, sl, fp, lr}
 8001764:	b0d9      	sub	sp, #356	; 0x164
 8001766:	9304      	str	r3, [sp, #16]
 8001768:	9101      	str	r1, [sp, #4]
 800176a:	4bc3      	ldr	r3, [pc, #780]	; (8001a78 <__kernel_rem_pio2f+0x318>)
 800176c:	9962      	ldr	r1, [sp, #392]	; 0x188
 800176e:	1ed4      	subs	r4, r2, #3
 8001770:	f853 3021 	ldr.w	r3, [r3, r1, lsl #2]
 8001774:	2500      	movs	r5, #0
 8001776:	9302      	str	r3, [sp, #8]
 8001778:	9b04      	ldr	r3, [sp, #16]
 800177a:	f04f 0a00 	mov.w	sl, #0
 800177e:	3b01      	subs	r3, #1
 8001780:	9303      	str	r3, [sp, #12]
 8001782:	2308      	movs	r3, #8
 8001784:	fb94 f4f3 	sdiv	r4, r4, r3
 8001788:	ea24 74e4 	bic.w	r4, r4, r4, asr #31
 800178c:	1c66      	adds	r6, r4, #1
 800178e:	eba2 06c6 	sub.w	r6, r2, r6, lsl #3
 8001792:	e9dd 3202 	ldrd	r3, r2, [sp, #8]
 8001796:	eb03 0802 	add.w	r8, r3, r2
 800179a:	9b63      	ldr	r3, [sp, #396]	; 0x18c
 800179c:	1aa7      	subs	r7, r4, r2
 800179e:	9005      	str	r0, [sp, #20]
 80017a0:	eb03 0987 	add.w	r9, r3, r7, lsl #2
 80017a4:	f10d 0b70 	add.w	fp, sp, #112	; 0x70
 80017a8:	4545      	cmp	r5, r8
 80017aa:	dd7f      	ble.n	80018ac <__kernel_rem_pio2f+0x14c>
 80017ac:	f04f 0800 	mov.w	r8, #0
 80017b0:	f04f 0a00 	mov.w	sl, #0
 80017b4:	f06f 0b03 	mvn.w	fp, #3
 80017b8:	9b04      	ldr	r3, [sp, #16]
 80017ba:	aa1c      	add	r2, sp, #112	; 0x70
 80017bc:	eb02 0583 	add.w	r5, r2, r3, lsl #2
 80017c0:	ab44      	add	r3, sp, #272	; 0x110
 80017c2:	9a02      	ldr	r2, [sp, #8]
 80017c4:	4590      	cmp	r8, r2
 80017c6:	f340 8097 	ble.w	80018f8 <__kernel_rem_pio2f+0x198>
 80017ca:	4613      	mov	r3, r2
 80017cc:	aa08      	add	r2, sp, #32
 80017ce:	eb02 0383 	add.w	r3, r2, r3, lsl #2
 80017d2:	9307      	str	r3, [sp, #28]
 80017d4:	9b63      	ldr	r3, [sp, #396]	; 0x18c
 80017d6:	9f02      	ldr	r7, [sp, #8]
 80017d8:	eb03 0384 	add.w	r3, r3, r4, lsl #2
 80017dc:	9306      	str	r3, [sp, #24]
 80017de:	46ba      	mov	sl, r7
 80017e0:	f04f 4887 	mov.w	r8, #1132462080	; 0x43800000
 80017e4:	ab58      	add	r3, sp, #352	; 0x160
 80017e6:	eb03 0387 	add.w	r3, r3, r7, lsl #2
 80017ea:	f853 4c50 	ldr.w	r4, [r3, #-80]
 80017ee:	ad07      	add	r5, sp, #28
 80017f0:	f50d 7988 	add.w	r9, sp, #272	; 0x110
 80017f4:	f1ba 0f00 	cmp.w	sl, #0
 80017f8:	f300 8081 	bgt.w	80018fe <__kernel_rem_pio2f+0x19e>
 80017fc:	4631      	mov	r1, r6
 80017fe:	4620      	mov	r0, r4
 8001800:	f000 fb06 	bl	8001e10 <scalbnf>
 8001804:	f04f 5178 	mov.w	r1, #1040187392	; 0x3e000000
 8001808:	4604      	mov	r4, r0
 800180a:	f7fe fdbf 	bl	800038c <__aeabi_fmul>
 800180e:	f000 fabf 	bl	8001d90 <floorf>
 8001812:	f04f 4182 	mov.w	r1, #1090519040	; 0x41000000
 8001816:	f7fe fdb9 	bl	800038c <__aeabi_fmul>
 800181a:	4601      	mov	r1, r0
 800181c:	4620      	mov	r0, r4
 800181e:	f7fe fcab 	bl	8000178 <__aeabi_fsub>
 8001822:	4604      	mov	r4, r0
 8001824:	f7fe ff78 	bl	8000718 <__aeabi_f2iz>
 8001828:	4681      	mov	r9, r0
 800182a:	f7fe fd5b 	bl	80002e4 <__aeabi_i2f>
 800182e:	4601      	mov	r1, r0
 8001830:	4620      	mov	r0, r4
 8001832:	f7fe fca1 	bl	8000178 <__aeabi_fsub>
 8001836:	2e00      	cmp	r6, #0
 8001838:	4604      	mov	r4, r0
 800183a:	dd7e      	ble.n	800193a <__kernel_rem_pio2f+0x1da>
 800183c:	1e7b      	subs	r3, r7, #1
 800183e:	aa08      	add	r2, sp, #32
 8001840:	f852 5023 	ldr.w	r5, [r2, r3, lsl #2]
 8001844:	f1c6 0208 	rsb	r2, r6, #8
 8001848:	fa45 f002 	asr.w	r0, r5, r2
 800184c:	4481      	add	r9, r0
 800184e:	4090      	lsls	r0, r2
 8001850:	1a2d      	subs	r5, r5, r0
 8001852:	aa08      	add	r2, sp, #32
 8001854:	f1c6 0007 	rsb	r0, r6, #7
 8001858:	f842 5023 	str.w	r5, [r2, r3, lsl #2]
 800185c:	4105      	asrs	r5, r0
 800185e:	2d00      	cmp	r5, #0
 8001860:	dd79      	ble.n	8001956 <__kernel_rem_pio2f+0x1f6>
 8001862:	2200      	movs	r2, #0
 8001864:	4690      	mov	r8, r2
 8001866:	f109 0901 	add.w	r9, r9, #1
 800186a:	4297      	cmp	r7, r2
 800186c:	f300 80ae 	bgt.w	80019cc <__kernel_rem_pio2f+0x26c>
 8001870:	2e00      	cmp	r6, #0
 8001872:	dd05      	ble.n	8001880 <__kernel_rem_pio2f+0x120>
 8001874:	2e01      	cmp	r6, #1
 8001876:	f000 80c0 	beq.w	80019fa <__kernel_rem_pio2f+0x29a>
 800187a:	2e02      	cmp	r6, #2
 800187c:	f000 80c7 	beq.w	8001a0e <__kernel_rem_pio2f+0x2ae>
 8001880:	2d02      	cmp	r5, #2
 8001882:	d168      	bne.n	8001956 <__kernel_rem_pio2f+0x1f6>
 8001884:	4621      	mov	r1, r4
 8001886:	f04f 507e 	mov.w	r0, #1065353216	; 0x3f800000
 800188a:	f7fe fc75 	bl	8000178 <__aeabi_fsub>
 800188e:	4604      	mov	r4, r0
 8001890:	f1b8 0f00 	cmp.w	r8, #0
 8001894:	d05f      	beq.n	8001956 <__kernel_rem_pio2f+0x1f6>
 8001896:	4631      	mov	r1, r6
 8001898:	f04f 507e 	mov.w	r0, #1065353216	; 0x3f800000
 800189c:	f000 fab8 	bl	8001e10 <scalbnf>
 80018a0:	4601      	mov	r1, r0
 80018a2:	4620      	mov	r0, r4
 80018a4:	f7fe fc68 	bl	8000178 <__aeabi_fsub>
 80018a8:	4604      	mov	r4, r0
 80018aa:	e054      	b.n	8001956 <__kernel_rem_pio2f+0x1f6>
 80018ac:	42ef      	cmn	r7, r5
 80018ae:	d407      	bmi.n	80018c0 <__kernel_rem_pio2f+0x160>
 80018b0:	f859 0025 	ldr.w	r0, [r9, r5, lsl #2]
 80018b4:	f7fe fd16 	bl	80002e4 <__aeabi_i2f>
 80018b8:	f84b 0025 	str.w	r0, [fp, r5, lsl #2]
 80018bc:	3501      	adds	r5, #1
 80018be:	e773      	b.n	80017a8 <__kernel_rem_pio2f+0x48>
 80018c0:	4650      	mov	r0, sl
 80018c2:	e7f9      	b.n	80018b8 <__kernel_rem_pio2f+0x158>
 80018c4:	fb0b 5207 	mla	r2, fp, r7, r5
 80018c8:	9306      	str	r3, [sp, #24]
 80018ca:	9b05      	ldr	r3, [sp, #20]
 80018cc:	f852 0c04 	ldr.w	r0, [r2, #-4]
 80018d0:	f853 1027 	ldr.w	r1, [r3, r7, lsl #2]
 80018d4:	f7fe fd5a 	bl	800038c <__aeabi_fmul>
 80018d8:	4601      	mov	r1, r0
 80018da:	4648      	mov	r0, r9
 80018dc:	f7fe fc4e 	bl	800017c <__addsf3>
 80018e0:	4681      	mov	r9, r0
 80018e2:	9b06      	ldr	r3, [sp, #24]
 80018e4:	3701      	adds	r7, #1
 80018e6:	9a03      	ldr	r2, [sp, #12]
 80018e8:	4297      	cmp	r7, r2
 80018ea:	ddeb      	ble.n	80018c4 <__kernel_rem_pio2f+0x164>
 80018ec:	f843 9028 	str.w	r9, [r3, r8, lsl #2]
 80018f0:	3504      	adds	r5, #4
 80018f2:	f108 0801 	add.w	r8, r8, #1
 80018f6:	e764      	b.n	80017c2 <__kernel_rem_pio2f+0x62>
 80018f8:	46d1      	mov	r9, sl
 80018fa:	2700      	movs	r7, #0
 80018fc:	e7f3      	b.n	80018e6 <__kernel_rem_pio2f+0x186>
 80018fe:	f04f 516e 	mov.w	r1, #998244352	; 0x3b800000
 8001902:	4620      	mov	r0, r4
 8001904:	f7fe fd42 	bl	800038c <__aeabi_fmul>
 8001908:	f7fe ff06 	bl	8000718 <__aeabi_f2iz>
 800190c:	f7fe fcea 	bl	80002e4 <__aeabi_i2f>
 8001910:	4641      	mov	r1, r8
 8001912:	4683      	mov	fp, r0
 8001914:	f7fe fd3a 	bl	800038c <__aeabi_fmul>
 8001918:	4601      	mov	r1, r0
 800191a:	4620      	mov	r0, r4
 800191c:	f7fe fc2c 	bl	8000178 <__aeabi_fsub>
 8001920:	f7fe fefa 	bl	8000718 <__aeabi_f2iz>
 8001924:	f10a 3aff 	add.w	sl, sl, #4294967295
 8001928:	f845 0f04 	str.w	r0, [r5, #4]!
 800192c:	f859 102a 	ldr.w	r1, [r9, sl, lsl #2]
 8001930:	4658      	mov	r0, fp
 8001932:	f7fe fc23 	bl	800017c <__addsf3>
 8001936:	4604      	mov	r4, r0
 8001938:	e75c      	b.n	80017f4 <__kernel_rem_pio2f+0x94>
 800193a:	d105      	bne.n	8001948 <__kernel_rem_pio2f+0x1e8>
 800193c:	1e7b      	subs	r3, r7, #1
 800193e:	aa08      	add	r2, sp, #32
 8001940:	f852 5023 	ldr.w	r5, [r2, r3, lsl #2]
 8001944:	122d      	asrs	r5, r5, #8
 8001946:	e78a      	b.n	800185e <__kernel_rem_pio2f+0xfe>
 8001948:	f04f 517c 	mov.w	r1, #1056964608	; 0x3f000000
 800194c:	f7fe fed0 	bl	80006f0 <__aeabi_fcmpge>
 8001950:	2800      	cmp	r0, #0
 8001952:	d139      	bne.n	80019c8 <__kernel_rem_pio2f+0x268>
 8001954:	4605      	mov	r5, r0
 8001956:	2100      	movs	r1, #0
 8001958:	4620      	mov	r0, r4
 800195a:	f7fe feab 	bl	80006b4 <__aeabi_fcmpeq>
 800195e:	2800      	cmp	r0, #0
 8001960:	f000 80a0 	beq.w	8001aa4 <__kernel_rem_pio2f+0x344>
 8001964:	1e7c      	subs	r4, r7, #1
 8001966:	4623      	mov	r3, r4
 8001968:	2200      	movs	r2, #0
 800196a:	9902      	ldr	r1, [sp, #8]
 800196c:	428b      	cmp	r3, r1
 800196e:	da55      	bge.n	8001a1c <__kernel_rem_pio2f+0x2bc>
 8001970:	2a00      	cmp	r2, #0
 8001972:	d07e      	beq.n	8001a72 <__kernel_rem_pio2f+0x312>
 8001974:	ab08      	add	r3, sp, #32
 8001976:	f853 3024 	ldr.w	r3, [r3, r4, lsl #2]
 800197a:	3e08      	subs	r6, #8
 800197c:	2b00      	cmp	r3, #0
 800197e:	f000 808f 	beq.w	8001aa0 <__kernel_rem_pio2f+0x340>
 8001982:	4631      	mov	r1, r6
 8001984:	f04f 507e 	mov.w	r0, #1065353216	; 0x3f800000
 8001988:	f000 fa42 	bl	8001e10 <scalbnf>
 800198c:	46a0      	mov	r8, r4
 800198e:	4682      	mov	sl, r0
 8001990:	f04f 566e 	mov.w	r6, #998244352	; 0x3b800000
 8001994:	af44      	add	r7, sp, #272	; 0x110
 8001996:	f1b8 0f00 	cmp.w	r8, #0
 800199a:	f280 80b5 	bge.w	8001b08 <__kernel_rem_pio2f+0x3a8>
 800199e:	f04f 0a00 	mov.w	sl, #0
 80019a2:	2300      	movs	r3, #0
 80019a4:	00a6      	lsls	r6, r4, #2
 80019a6:	4a35      	ldr	r2, [pc, #212]	; (8001a7c <__kernel_rem_pio2f+0x31c>)
 80019a8:	4437      	add	r7, r6
 80019aa:	eba4 010a 	sub.w	r1, r4, sl
 80019ae:	2900      	cmp	r1, #0
 80019b0:	f280 80db 	bge.w	8001b6a <__kernel_rem_pio2f+0x40a>
 80019b4:	9b62      	ldr	r3, [sp, #392]	; 0x188
 80019b6:	2b03      	cmp	r3, #3
 80019b8:	f200 80ff 	bhi.w	8001bba <__kernel_rem_pio2f+0x45a>
 80019bc:	e8df f013 	tbh	[pc, r3, lsl #1]
 80019c0:	01200102 	.word	0x01200102
 80019c4:	00d90120 	.word	0x00d90120
 80019c8:	2502      	movs	r5, #2
 80019ca:	e74a      	b.n	8001862 <__kernel_rem_pio2f+0x102>
 80019cc:	ab08      	add	r3, sp, #32
 80019ce:	f853 3022 	ldr.w	r3, [r3, r2, lsl #2]
 80019d2:	f1b8 0f00 	cmp.w	r8, #0
 80019d6:	d109      	bne.n	80019ec <__kernel_rem_pio2f+0x28c>
 80019d8:	b12b      	cbz	r3, 80019e6 <__kernel_rem_pio2f+0x286>
 80019da:	f5c3 7380 	rsb	r3, r3, #256	; 0x100
 80019de:	a908      	add	r1, sp, #32
 80019e0:	f841 3022 	str.w	r3, [r1, r2, lsl #2]
 80019e4:	2301      	movs	r3, #1
 80019e6:	3201      	adds	r2, #1
 80019e8:	4698      	mov	r8, r3
 80019ea:	e73e      	b.n	800186a <__kernel_rem_pio2f+0x10a>
 80019ec:	f1c3 03ff 	rsb	r3, r3, #255	; 0xff
 80019f0:	a908      	add	r1, sp, #32
 80019f2:	f841 3022 	str.w	r3, [r1, r2, lsl #2]
 80019f6:	4643      	mov	r3, r8
 80019f8:	e7f5      	b.n	80019e6 <__kernel_rem_pio2f+0x286>
 80019fa:	1e7a      	subs	r2, r7, #1
 80019fc:	ab08      	add	r3, sp, #32
 80019fe:	f853 3022 	ldr.w	r3, [r3, r2, lsl #2]
 8001a02:	f003 037f 	and.w	r3, r3, #127	; 0x7f
 8001a06:	a908      	add	r1, sp, #32
 8001a08:	f841 3022 	str.w	r3, [r1, r2, lsl #2]
 8001a0c:	e738      	b.n	8001880 <__kernel_rem_pio2f+0x120>
 8001a0e:	1e7a      	subs	r2, r7, #1
 8001a10:	ab08      	add	r3, sp, #32
 8001a12:	f853 3022 	ldr.w	r3, [r3, r2, lsl #2]
 8001a16:	f003 033f 	and.w	r3, r3, #63	; 0x3f
 8001a1a:	e7f4      	b.n	8001a06 <__kernel_rem_pio2f+0x2a6>
 8001a1c:	a908      	add	r1, sp, #32
 8001a1e:	f851 1023 	ldr.w	r1, [r1, r3, lsl #2]
 8001a22:	3b01      	subs	r3, #1
 8001a24:	430a      	orrs	r2, r1
 8001a26:	e7a0      	b.n	800196a <__kernel_rem_pio2f+0x20a>
 8001a28:	3301      	adds	r3, #1
 8001a2a:	f852 1d04 	ldr.w	r1, [r2, #-4]!
 8001a2e:	2900      	cmp	r1, #0
 8001a30:	d0fa      	beq.n	8001a28 <__kernel_rem_pio2f+0x2c8>
 8001a32:	f06f 0803 	mvn.w	r8, #3
 8001a36:	9a04      	ldr	r2, [sp, #16]
 8001a38:	1c7d      	adds	r5, r7, #1
 8001a3a:	18bc      	adds	r4, r7, r2
 8001a3c:	aa1c      	add	r2, sp, #112	; 0x70
 8001a3e:	eb02 0484 	add.w	r4, r2, r4, lsl #2
 8001a42:	441f      	add	r7, r3
 8001a44:	f50d 7988 	add.w	r9, sp, #272	; 0x110
 8001a48:	42af      	cmp	r7, r5
 8001a4a:	f6ff aec8 	blt.w	80017de <__kernel_rem_pio2f+0x7e>
 8001a4e:	9b06      	ldr	r3, [sp, #24]
 8001a50:	f04f 0a00 	mov.w	sl, #0
 8001a54:	f853 0025 	ldr.w	r0, [r3, r5, lsl #2]
 8001a58:	f7fe fc44 	bl	80002e4 <__aeabi_i2f>
 8001a5c:	f04f 0b00 	mov.w	fp, #0
 8001a60:	6020      	str	r0, [r4, #0]
 8001a62:	9b03      	ldr	r3, [sp, #12]
 8001a64:	459a      	cmp	sl, r3
 8001a66:	dd0b      	ble.n	8001a80 <__kernel_rem_pio2f+0x320>
 8001a68:	f849 b025 	str.w	fp, [r9, r5, lsl #2]
 8001a6c:	3404      	adds	r4, #4
 8001a6e:	3501      	adds	r5, #1
 8001a70:	e7ea      	b.n	8001a48 <__kernel_rem_pio2f+0x2e8>
 8001a72:	9a07      	ldr	r2, [sp, #28]
 8001a74:	2301      	movs	r3, #1
 8001a76:	e7d8      	b.n	8001a2a <__kernel_rem_pio2f+0x2ca>
 8001a78:	08002290 	.word	0x08002290
 8001a7c:	08002264 	.word	0x08002264
 8001a80:	fb08 f30a 	mul.w	r3, r8, sl
 8001a84:	9a05      	ldr	r2, [sp, #20]
 8001a86:	58e0      	ldr	r0, [r4, r3]
 8001a88:	f852 102a 	ldr.w	r1, [r2, sl, lsl #2]
 8001a8c:	f7fe fc7e 	bl	800038c <__aeabi_fmul>
 8001a90:	4601      	mov	r1, r0
 8001a92:	4658      	mov	r0, fp
 8001a94:	f7fe fb72 	bl	800017c <__addsf3>
 8001a98:	f10a 0a01 	add.w	sl, sl, #1
 8001a9c:	4683      	mov	fp, r0
 8001a9e:	e7e0      	b.n	8001a62 <__kernel_rem_pio2f+0x302>
 8001aa0:	3c01      	subs	r4, #1
 8001aa2:	e767      	b.n	8001974 <__kernel_rem_pio2f+0x214>
 8001aa4:	4271      	negs	r1, r6
 8001aa6:	4620      	mov	r0, r4
 8001aa8:	f000 f9b2 	bl	8001e10 <scalbnf>
 8001aac:	f04f 4187 	mov.w	r1, #1132462080	; 0x43800000
 8001ab0:	4604      	mov	r4, r0
 8001ab2:	f7fe fe1d 	bl	80006f0 <__aeabi_fcmpge>
 8001ab6:	b1f8      	cbz	r0, 8001af8 <__kernel_rem_pio2f+0x398>
 8001ab8:	f04f 516e 	mov.w	r1, #998244352	; 0x3b800000
 8001abc:	4620      	mov	r0, r4
 8001abe:	f7fe fc65 	bl	800038c <__aeabi_fmul>
 8001ac2:	f7fe fe29 	bl	8000718 <__aeabi_f2iz>
 8001ac6:	f7fe fc0d 	bl	80002e4 <__aeabi_i2f>
 8001aca:	f04f 4187 	mov.w	r1, #1132462080	; 0x43800000
 8001ace:	4680      	mov	r8, r0
 8001ad0:	f7fe fc5c 	bl	800038c <__aeabi_fmul>
 8001ad4:	4601      	mov	r1, r0
 8001ad6:	4620      	mov	r0, r4
 8001ad8:	f7fe fb4e 	bl	8000178 <__aeabi_fsub>
 8001adc:	f7fe fe1c 	bl	8000718 <__aeabi_f2iz>
 8001ae0:	ab08      	add	r3, sp, #32
 8001ae2:	f843 0027 	str.w	r0, [r3, r7, lsl #2]
 8001ae6:	4640      	mov	r0, r8
 8001ae8:	f7fe fe16 	bl	8000718 <__aeabi_f2iz>
 8001aec:	1c7c      	adds	r4, r7, #1
 8001aee:	ab08      	add	r3, sp, #32
 8001af0:	3608      	adds	r6, #8
 8001af2:	f843 0024 	str.w	r0, [r3, r4, lsl #2]
 8001af6:	e744      	b.n	8001982 <__kernel_rem_pio2f+0x222>
 8001af8:	4620      	mov	r0, r4
 8001afa:	f7fe fe0d 	bl	8000718 <__aeabi_f2iz>
 8001afe:	ab08      	add	r3, sp, #32
 8001b00:	f843 0027 	str.w	r0, [r3, r7, lsl #2]
 8001b04:	463c      	mov	r4, r7
 8001b06:	e73c      	b.n	8001982 <__kernel_rem_pio2f+0x222>
 8001b08:	ab08      	add	r3, sp, #32
 8001b0a:	f853 0028 	ldr.w	r0, [r3, r8, lsl #2]
 8001b0e:	f7fe fbe9 	bl	80002e4 <__aeabi_i2f>
 8001b12:	4651      	mov	r1, sl
 8001b14:	f7fe fc3a 	bl	800038c <__aeabi_fmul>
 8001b18:	4631      	mov	r1, r6
 8001b1a:	f847 0028 	str.w	r0, [r7, r8, lsl #2]
 8001b1e:	4650      	mov	r0, sl
 8001b20:	f7fe fc34 	bl	800038c <__aeabi_fmul>
 8001b24:	f108 38ff 	add.w	r8, r8, #4294967295
 8001b28:	4682      	mov	sl, r0
 8001b2a:	e734      	b.n	8001996 <__kernel_rem_pio2f+0x236>
 8001b2c:	f852 0028 	ldr.w	r0, [r2, r8, lsl #2]
 8001b30:	f857 1028 	ldr.w	r1, [r7, r8, lsl #2]
 8001b34:	9304      	str	r3, [sp, #16]
 8001b36:	9203      	str	r2, [sp, #12]
 8001b38:	f7fe fc28 	bl	800038c <__aeabi_fmul>
 8001b3c:	4601      	mov	r1, r0
 8001b3e:	4658      	mov	r0, fp
 8001b40:	f7fe fb1c 	bl	800017c <__addsf3>
 8001b44:	e9dd 2303 	ldrd	r2, r3, [sp, #12]
 8001b48:	4683      	mov	fp, r0
 8001b4a:	f108 0801 	add.w	r8, r8, #1
 8001b4e:	9902      	ldr	r1, [sp, #8]
 8001b50:	4588      	cmp	r8, r1
 8001b52:	dc01      	bgt.n	8001b58 <__kernel_rem_pio2f+0x3f8>
 8001b54:	45c2      	cmp	sl, r8
 8001b56:	dae9      	bge.n	8001b2c <__kernel_rem_pio2f+0x3cc>
 8001b58:	a958      	add	r1, sp, #352	; 0x160
 8001b5a:	eb01 018a 	add.w	r1, r1, sl, lsl #2
 8001b5e:	f841 bca0 	str.w	fp, [r1, #-160]
 8001b62:	f10a 0a01 	add.w	sl, sl, #1
 8001b66:	3f04      	subs	r7, #4
 8001b68:	e71f      	b.n	80019aa <__kernel_rem_pio2f+0x24a>
 8001b6a:	469b      	mov	fp, r3
 8001b6c:	f04f 0800 	mov.w	r8, #0
 8001b70:	e7ed      	b.n	8001b4e <__kernel_rem_pio2f+0x3ee>
 8001b72:	f10d 0ac0 	add.w	sl, sp, #192	; 0xc0
 8001b76:	4456      	add	r6, sl
 8001b78:	4637      	mov	r7, r6
 8001b7a:	46a0      	mov	r8, r4
 8001b7c:	f1b8 0f00 	cmp.w	r8, #0
 8001b80:	dc4a      	bgt.n	8001c18 <__kernel_rem_pio2f+0x4b8>
 8001b82:	4627      	mov	r7, r4
 8001b84:	2f01      	cmp	r7, #1
 8001b86:	dc60      	bgt.n	8001c4a <__kernel_rem_pio2f+0x4ea>
 8001b88:	2000      	movs	r0, #0
 8001b8a:	2c01      	cmp	r4, #1
 8001b8c:	dc74      	bgt.n	8001c78 <__kernel_rem_pio2f+0x518>
 8001b8e:	9a30      	ldr	r2, [sp, #192]	; 0xc0
 8001b90:	9b31      	ldr	r3, [sp, #196]	; 0xc4
 8001b92:	2d00      	cmp	r5, #0
 8001b94:	d176      	bne.n	8001c84 <__kernel_rem_pio2f+0x524>
 8001b96:	9901      	ldr	r1, [sp, #4]
 8001b98:	600a      	str	r2, [r1, #0]
 8001b9a:	460a      	mov	r2, r1
 8001b9c:	604b      	str	r3, [r1, #4]
 8001b9e:	6090      	str	r0, [r2, #8]
 8001ba0:	e00b      	b.n	8001bba <__kernel_rem_pio2f+0x45a>
 8001ba2:	f856 1024 	ldr.w	r1, [r6, r4, lsl #2]
 8001ba6:	f7fe fae9 	bl	800017c <__addsf3>
 8001baa:	3c01      	subs	r4, #1
 8001bac:	2c00      	cmp	r4, #0
 8001bae:	daf8      	bge.n	8001ba2 <__kernel_rem_pio2f+0x442>
 8001bb0:	b10d      	cbz	r5, 8001bb6 <__kernel_rem_pio2f+0x456>
 8001bb2:	f100 4000 	add.w	r0, r0, #2147483648	; 0x80000000
 8001bb6:	9b01      	ldr	r3, [sp, #4]
 8001bb8:	6018      	str	r0, [r3, #0]
 8001bba:	f009 0007 	and.w	r0, r9, #7
 8001bbe:	b059      	add	sp, #356	; 0x164
 8001bc0:	e8bd 8ff0 	ldmia.w	sp!, {r4, r5, r6, r7, r8, r9, sl, fp, pc}
 8001bc4:	2000      	movs	r0, #0
 8001bc6:	ae30      	add	r6, sp, #192	; 0xc0
 8001bc8:	e7f0      	b.n	8001bac <__kernel_rem_pio2f+0x44c>
 8001bca:	f857 1026 	ldr.w	r1, [r7, r6, lsl #2]
 8001bce:	f7fe fad5 	bl	800017c <__addsf3>
 8001bd2:	3e01      	subs	r6, #1
 8001bd4:	2e00      	cmp	r6, #0
 8001bd6:	daf8      	bge.n	8001bca <__kernel_rem_pio2f+0x46a>
 8001bd8:	b1b5      	cbz	r5, 8001c08 <__kernel_rem_pio2f+0x4a8>
 8001bda:	f100 4300 	add.w	r3, r0, #2147483648	; 0x80000000
 8001bde:	9a01      	ldr	r2, [sp, #4]
 8001be0:	af58      	add	r7, sp, #352	; 0x160
 8001be2:	4601      	mov	r1, r0
 8001be4:	6013      	str	r3, [r2, #0]
 8001be6:	f857 0da0 	ldr.w	r0, [r7, #-160]!
 8001bea:	f7fe fac5 	bl	8000178 <__aeabi_fsub>
 8001bee:	2601      	movs	r6, #1
 8001bf0:	42b4      	cmp	r4, r6
 8001bf2:	da0b      	bge.n	8001c0c <__kernel_rem_pio2f+0x4ac>
 8001bf4:	b10d      	cbz	r5, 8001bfa <__kernel_rem_pio2f+0x49a>
 8001bf6:	f100 4000 	add.w	r0, r0, #2147483648	; 0x80000000
 8001bfa:	9b01      	ldr	r3, [sp, #4]
 8001bfc:	6058      	str	r0, [r3, #4]
 8001bfe:	e7dc      	b.n	8001bba <__kernel_rem_pio2f+0x45a>
 8001c00:	4626      	mov	r6, r4
 8001c02:	2000      	movs	r0, #0
 8001c04:	af30      	add	r7, sp, #192	; 0xc0
 8001c06:	e7e5      	b.n	8001bd4 <__kernel_rem_pio2f+0x474>
 8001c08:	4603      	mov	r3, r0
 8001c0a:	e7e8      	b.n	8001bde <__kernel_rem_pio2f+0x47e>
 8001c0c:	f857 1026 	ldr.w	r1, [r7, r6, lsl #2]
 8001c10:	f7fe fab4 	bl	800017c <__addsf3>
 8001c14:	3601      	adds	r6, #1
 8001c16:	e7eb      	b.n	8001bf0 <__kernel_rem_pio2f+0x490>
 8001c18:	f857 2d04 	ldr.w	r2, [r7, #-4]!
 8001c1c:	f108 38ff 	add.w	r8, r8, #4294967295
 8001c20:	687b      	ldr	r3, [r7, #4]
 8001c22:	4610      	mov	r0, r2
 8001c24:	4619      	mov	r1, r3
 8001c26:	9303      	str	r3, [sp, #12]
 8001c28:	9202      	str	r2, [sp, #8]
 8001c2a:	f7fe faa7 	bl	800017c <__addsf3>
 8001c2e:	9a02      	ldr	r2, [sp, #8]
 8001c30:	4601      	mov	r1, r0
 8001c32:	4683      	mov	fp, r0
 8001c34:	4610      	mov	r0, r2
 8001c36:	f7fe fa9f 	bl	8000178 <__aeabi_fsub>
 8001c3a:	9b03      	ldr	r3, [sp, #12]
 8001c3c:	4619      	mov	r1, r3
 8001c3e:	f7fe fa9d 	bl	800017c <__addsf3>
 8001c42:	f8c7 b000 	str.w	fp, [r7]
 8001c46:	6078      	str	r0, [r7, #4]
 8001c48:	e798      	b.n	8001b7c <__kernel_rem_pio2f+0x41c>
 8001c4a:	f856 3d04 	ldr.w	r3, [r6, #-4]!
 8001c4e:	3f01      	subs	r7, #1
 8001c50:	f8d6 b004 	ldr.w	fp, [r6, #4]
 8001c54:	4618      	mov	r0, r3
 8001c56:	4659      	mov	r1, fp
 8001c58:	9302      	str	r3, [sp, #8]
 8001c5a:	f7fe fa8f 	bl	800017c <__addsf3>
 8001c5e:	9b02      	ldr	r3, [sp, #8]
 8001c60:	4601      	mov	r1, r0
 8001c62:	4680      	mov	r8, r0
 8001c64:	4618      	mov	r0, r3
 8001c66:	f7fe fa87 	bl	8000178 <__aeabi_fsub>
 8001c6a:	4659      	mov	r1, fp
 8001c6c:	f7fe fa86 	bl	800017c <__addsf3>
 8001c70:	f8c6 8000 	str.w	r8, [r6]
 8001c74:	6070      	str	r0, [r6, #4]
 8001c76:	e785      	b.n	8001b84 <__kernel_rem_pio2f+0x424>
 8001c78:	f85a 1024 	ldr.w	r1, [sl, r4, lsl #2]
 8001c7c:	f7fe fa7e 	bl	800017c <__addsf3>
 8001c80:	3c01      	subs	r4, #1
 8001c82:	e782      	b.n	8001b8a <__kernel_rem_pio2f+0x42a>
 8001c84:	9901      	ldr	r1, [sp, #4]
 8001c86:	f102 4200 	add.w	r2, r2, #2147483648	; 0x80000000
 8001c8a:	f103 4300 	add.w	r3, r3, #2147483648	; 0x80000000
 8001c8e:	600a      	str	r2, [r1, #0]
 8001c90:	604b      	str	r3, [r1, #4]
 8001c92:	460a      	mov	r2, r1
 8001c94:	f100 4000 	add.w	r0, r0, #2147483648	; 0x80000000
 8001c98:	e781      	b.n	8001b9e <__kernel_rem_pio2f+0x43e>
 8001c9a:	bf00      	nop

08001c9c <__kernel_sinf>:
 8001c9c:	e92d 43f8 	stmdb	sp!, {r3, r4, r5, r6, r7, r8, r9, lr}
 8001ca0:	f020 4300 	bic.w	r3, r0, #2147483648	; 0x80000000
 8001ca4:	f1b3 5f48 	cmp.w	r3, #838860800	; 0x32000000
 8001ca8:	4604      	mov	r4, r0
 8001caa:	460f      	mov	r7, r1
 8001cac:	4691      	mov	r9, r2
 8001cae:	da03      	bge.n	8001cb8 <__kernel_sinf+0x1c>
 8001cb0:	f7fe fd32 	bl	8000718 <__aeabi_f2iz>
 8001cb4:	2800      	cmp	r0, #0
 8001cb6:	d035      	beq.n	8001d24 <__kernel_sinf+0x88>
 8001cb8:	4621      	mov	r1, r4
 8001cba:	4620      	mov	r0, r4
 8001cbc:	f7fe fb66 	bl	800038c <__aeabi_fmul>
 8001cc0:	4605      	mov	r5, r0
 8001cc2:	4601      	mov	r1, r0
 8001cc4:	4620      	mov	r0, r4
 8001cc6:	f7fe fb61 	bl	800038c <__aeabi_fmul>
 8001cca:	4929      	ldr	r1, [pc, #164]	; (8001d70 <__kernel_sinf+0xd4>)
 8001ccc:	4606      	mov	r6, r0
 8001cce:	4628      	mov	r0, r5
 8001cd0:	f7fe fb5c 	bl	800038c <__aeabi_fmul>
 8001cd4:	4927      	ldr	r1, [pc, #156]	; (8001d74 <__kernel_sinf+0xd8>)
 8001cd6:	f7fe fa4f 	bl	8000178 <__aeabi_fsub>
 8001cda:	4629      	mov	r1, r5
 8001cdc:	f7fe fb56 	bl	800038c <__aeabi_fmul>
 8001ce0:	4925      	ldr	r1, [pc, #148]	; (8001d78 <__kernel_sinf+0xdc>)
 8001ce2:	f7fe fa4b 	bl	800017c <__addsf3>
 8001ce6:	4629      	mov	r1, r5
 8001ce8:	f7fe fb50 	bl	800038c <__aeabi_fmul>
 8001cec:	4923      	ldr	r1, [pc, #140]	; (8001d7c <__kernel_sinf+0xe0>)
 8001cee:	f7fe fa43 	bl	8000178 <__aeabi_fsub>
 8001cf2:	4629      	mov	r1, r5
 8001cf4:	f7fe fb4a 	bl	800038c <__aeabi_fmul>
 8001cf8:	4921      	ldr	r1, [pc, #132]	; (8001d80 <__kernel_sinf+0xe4>)
 8001cfa:	f7fe fa3f 	bl	800017c <__addsf3>
 8001cfe:	4680      	mov	r8, r0
 8001d00:	f1b9 0f00 	cmp.w	r9, #0
 8001d04:	d111      	bne.n	8001d2a <__kernel_sinf+0x8e>
 8001d06:	4601      	mov	r1, r0
 8001d08:	4628      	mov	r0, r5
 8001d0a:	f7fe fb3f 	bl	800038c <__aeabi_fmul>
 8001d0e:	491d      	ldr	r1, [pc, #116]	; (8001d84 <__kernel_sinf+0xe8>)
 8001d10:	f7fe fa32 	bl	8000178 <__aeabi_fsub>
 8001d14:	4631      	mov	r1, r6
 8001d16:	f7fe fb39 	bl	800038c <__aeabi_fmul>
 8001d1a:	4601      	mov	r1, r0
 8001d1c:	4620      	mov	r0, r4
 8001d1e:	f7fe fa2d 	bl	800017c <__addsf3>
 8001d22:	4604      	mov	r4, r0
 8001d24:	4620      	mov	r0, r4
 8001d26:	e8bd 83f8 	ldmia.w	sp!, {r3, r4, r5, r6, r7, r8, r9, pc}
 8001d2a:	f04f 517c 	mov.w	r1, #1056964608	; 0x3f000000
 8001d2e:	4638      	mov	r0, r7
 8001d30:	f7fe fb2c 	bl	800038c <__aeabi_fmul>
 8001d34:	4641      	mov	r1, r8
 8001d36:	4681      	mov	r9, r0
 8001d38:	4630      	mov	r0, r6
 8001d3a:	f7fe fb27 	bl	800038c <__aeabi_fmul>
 8001d3e:	4601      	mov	r1, r0
 8001d40:	4648      	mov	r0, r9
 8001d42:	f7fe fa19 	bl	8000178 <__aeabi_fsub>
 8001d46:	4629      	mov	r1, r5
 8001d48:	f7fe fb20 	bl	800038c <__aeabi_fmul>
 8001d4c:	4639      	mov	r1, r7
 8001d4e:	f7fe fa13 	bl	8000178 <__aeabi_fsub>
 8001d52:	490c      	ldr	r1, [pc, #48]	; (8001d84 <__kernel_sinf+0xe8>)
 8001d54:	4605      	mov	r5, r0
 8001d56:	4630      	mov	r0, r6
 8001d58:	f7fe fb18 	bl	800038c <__aeabi_fmul>
 8001d5c:	4601      	mov	r1, r0
 8001d5e:	4628      	mov	r0, r5
 8001d60:	f7fe fa0c 	bl	800017c <__addsf3>
 8001d64:	4601      	mov	r1, r0
 8001d66:	4620      	mov	r0, r4
 8001d68:	f7fe fa06 	bl	8000178 <__aeabi_fsub>
 8001d6c:	e7d9      	b.n	8001d22 <__kernel_sinf+0x86>
 8001d6e:	bf00      	nop
 8001d70:	2f2ec9d3 	.word	0x2f2ec9d3
 8001d74:	32d72f34 	.word	0x32d72f34
 8001d78:	3638ef1b 	.word	0x3638ef1b
 8001d7c:	39500d01 	.word	0x39500d01
 8001d80:	3c088889 	.word	0x3c088889
 8001d84:	3e2aaaab 	.word	0x3e2aaaab

08001d88 <fabsf>:
 8001d88:	f020 4000 	bic.w	r0, r0, #2147483648	; 0x80000000
 8001d8c:	4770      	bx	lr
	...

08001d90 <floorf>:
 8001d90:	b570      	push	{r4, r5, r6, lr}
 8001d92:	f020 4600 	bic.w	r6, r0, #2147483648	; 0x80000000
 8001d96:	0df5      	lsrs	r5, r6, #23
 8001d98:	3d7f      	subs	r5, #127	; 0x7f
 8001d9a:	2d16      	cmp	r5, #22
 8001d9c:	4601      	mov	r1, r0
 8001d9e:	4604      	mov	r4, r0
 8001da0:	dc26      	bgt.n	8001df0 <floorf+0x60>
 8001da2:	2d00      	cmp	r5, #0
 8001da4:	da0e      	bge.n	8001dc4 <floorf+0x34>
 8001da6:	4917      	ldr	r1, [pc, #92]	; (8001e04 <floorf+0x74>)
 8001da8:	f7fe f9e8 	bl	800017c <__addsf3>
 8001dac:	2100      	movs	r1, #0
 8001dae:	f7fe fca9 	bl	8000704 <__aeabi_fcmpgt>
 8001db2:	b128      	cbz	r0, 8001dc0 <floorf+0x30>
 8001db4:	2c00      	cmp	r4, #0
 8001db6:	da23      	bge.n	8001e00 <floorf+0x70>
 8001db8:	4b13      	ldr	r3, [pc, #76]	; (8001e08 <floorf+0x78>)
 8001dba:	2e00      	cmp	r6, #0
 8001dbc:	bf18      	it	ne
 8001dbe:	461c      	movne	r4, r3
 8001dc0:	4621      	mov	r1, r4
 8001dc2:	e01b      	b.n	8001dfc <floorf+0x6c>
 8001dc4:	4e11      	ldr	r6, [pc, #68]	; (8001e0c <floorf+0x7c>)
 8001dc6:	412e      	asrs	r6, r5
 8001dc8:	4230      	tst	r0, r6
 8001dca:	d017      	beq.n	8001dfc <floorf+0x6c>
 8001dcc:	490d      	ldr	r1, [pc, #52]	; (8001e04 <floorf+0x74>)
 8001dce:	f7fe f9d5 	bl	800017c <__addsf3>
 8001dd2:	2100      	movs	r1, #0
 8001dd4:	f7fe fc96 	bl	8000704 <__aeabi_fcmpgt>
 8001dd8:	2800      	cmp	r0, #0
 8001dda:	d0f1      	beq.n	8001dc0 <floorf+0x30>
 8001ddc:	2c00      	cmp	r4, #0
 8001dde:	bfbe      	ittt	lt
 8001de0:	f44f 0300 	movlt.w	r3, #8388608	; 0x800000
 8001de4:	fa43 f505 	asrlt.w	r5, r3, r5
 8001de8:	1964      	addlt	r4, r4, r5
 8001dea:	ea24 0406 	bic.w	r4, r4, r6
 8001dee:	e7e7      	b.n	8001dc0 <floorf+0x30>
 8001df0:	f1b6 4fff 	cmp.w	r6, #2139095040	; 0x7f800000
 8001df4:	d302      	bcc.n	8001dfc <floorf+0x6c>
 8001df6:	f7fe f9c1 	bl	800017c <__addsf3>
 8001dfa:	4601      	mov	r1, r0
 8001dfc:	4608      	mov	r0, r1
 8001dfe:	bd70      	pop	{r4, r5, r6, pc}
 8001e00:	2400      	movs	r4, #0
 8001e02:	e7dd      	b.n	8001dc0 <floorf+0x30>
 8001e04:	7149f2ca 	.word	0x7149f2ca
 8001e08:	bf800000 	.word	0xbf800000
 8001e0c:	007fffff 	.word	0x007fffff

08001e10 <scalbnf>:
 8001e10:	f030 4300 	bics.w	r3, r0, #2147483648	; 0x80000000
 8001e14:	b510      	push	{r4, lr}
 8001e16:	4602      	mov	r2, r0
 8001e18:	460c      	mov	r4, r1
 8001e1a:	4601      	mov	r1, r0
 8001e1c:	d027      	beq.n	8001e6e <scalbnf+0x5e>
 8001e1e:	f1b3 4fff 	cmp.w	r3, #2139095040	; 0x7f800000
 8001e22:	d303      	bcc.n	8001e2c <scalbnf+0x1c>
 8001e24:	f7fe f9aa 	bl	800017c <__addsf3>
 8001e28:	4602      	mov	r2, r0
 8001e2a:	e020      	b.n	8001e6e <scalbnf+0x5e>
 8001e2c:	f5b3 0f00 	cmp.w	r3, #8388608	; 0x800000
 8001e30:	d215      	bcs.n	8001e5e <scalbnf+0x4e>
 8001e32:	f04f 4198 	mov.w	r1, #1275068416	; 0x4c000000
 8001e36:	f7fe faa9 	bl	800038c <__aeabi_fmul>
 8001e3a:	4b18      	ldr	r3, [pc, #96]	; (8001e9c <scalbnf+0x8c>)
 8001e3c:	4602      	mov	r2, r0
 8001e3e:	429c      	cmp	r4, r3
 8001e40:	db22      	blt.n	8001e88 <scalbnf+0x78>
 8001e42:	f3c0 53c7 	ubfx	r3, r0, #23, #8
 8001e46:	3b19      	subs	r3, #25
 8001e48:	4423      	add	r3, r4
 8001e4a:	2bfe      	cmp	r3, #254	; 0xfe
 8001e4c:	dd09      	ble.n	8001e62 <scalbnf+0x52>
 8001e4e:	4611      	mov	r1, r2
 8001e50:	4813      	ldr	r0, [pc, #76]	; (8001ea0 <scalbnf+0x90>)
 8001e52:	f000 f829 	bl	8001ea8 <copysignf>
 8001e56:	4912      	ldr	r1, [pc, #72]	; (8001ea0 <scalbnf+0x90>)
 8001e58:	f7fe fa98 	bl	800038c <__aeabi_fmul>
 8001e5c:	e7e4      	b.n	8001e28 <scalbnf+0x18>
 8001e5e:	0ddb      	lsrs	r3, r3, #23
 8001e60:	e7f2      	b.n	8001e48 <scalbnf+0x38>
 8001e62:	2b00      	cmp	r3, #0
 8001e64:	dd05      	ble.n	8001e72 <scalbnf+0x62>
 8001e66:	f020 40ff 	bic.w	r0, r0, #2139095040	; 0x7f800000
 8001e6a:	ea40 52c3 	orr.w	r2, r0, r3, lsl #23
 8001e6e:	4610      	mov	r0, r2
 8001e70:	bd10      	pop	{r4, pc}
 8001e72:	f113 0f16 	cmn.w	r3, #22
 8001e76:	da09      	bge.n	8001e8c <scalbnf+0x7c>
 8001e78:	f24c 3350 	movw	r3, #50000	; 0xc350
 8001e7c:	429c      	cmp	r4, r3
 8001e7e:	4611      	mov	r1, r2
 8001e80:	dce6      	bgt.n	8001e50 <scalbnf+0x40>
 8001e82:	4808      	ldr	r0, [pc, #32]	; (8001ea4 <scalbnf+0x94>)
 8001e84:	f000 f810 	bl	8001ea8 <copysignf>
 8001e88:	4906      	ldr	r1, [pc, #24]	; (8001ea4 <scalbnf+0x94>)
 8001e8a:	e7e5      	b.n	8001e58 <scalbnf+0x48>
 8001e8c:	3319      	adds	r3, #25
 8001e8e:	f020 40ff 	bic.w	r0, r0, #2139095040	; 0x7f800000
 8001e92:	f04f 514c 	mov.w	r1, #855638016	; 0x33000000
 8001e96:	ea40 50c3 	orr.w	r0, r0, r3, lsl #23
 8001e9a:	e7dd      	b.n	8001e58 <scalbnf+0x48>
 8001e9c:	ffff3cb0 	.word	0xffff3cb0
 8001ea0:	7149f2ca 	.word	0x7149f2ca
 8001ea4:	0da24260 	.word	0x0da24260

08001ea8 <copysignf>:
 8001ea8:	f001 4100 	and.w	r1, r1, #2147483648	; 0x80000000
 8001eac:	f020 4000 	bic.w	r0, r0, #2147483648	; 0x80000000
 8001eb0:	4308      	orrs	r0, r1
 8001eb2:	4770      	bx	lr

08001eb4 <_init>:
 8001eb4:	b5f8      	push	{r3, r4, r5, r6, r7, lr}
 8001eb6:	bf00      	nop
 8001eb8:	bcf8      	pop	{r3, r4, r5, r6, r7}
 8001eba:	bc08      	pop	{r3}
 8001ebc:	469e      	mov	lr, r3
 8001ebe:	4770      	bx	lr

08001ec0 <_fini>:
 8001ec0:	b5f8      	push	{r3, r4, r5, r6, r7, lr}
 8001ec2:	bf00      	nop
 8001ec4:	bcf8      	pop	{r3, r4, r5, r6, r7}
 8001ec6:	bc08      	pop	{r3}
 8001ec8:	469e      	mov	lr, r3
 8001eca:	4770      	bx	lr
